ARM GAS  C:\Users\Matvey\AppData\Local\Temp\ccf8E5QD.s 			page 1


   1              		.cpu cortex-m3
   2              		.arch armv7-m
   3              		.fpu softvfp
   4              		.eabi_attribute 20, 1
   5              		.eabi_attribute 21, 1
   6              		.eabi_attribute 23, 3
   7              		.eabi_attribute 24, 1
   8              		.eabi_attribute 25, 1
   9              		.eabi_attribute 26, 1
  10              		.eabi_attribute 30, 6
  11              		.eabi_attribute 34, 1
  12              		.eabi_attribute 18, 4
  13              		.file	"stm32f1xx_hal_spi.c"
  14              		.text
  15              	.Ltext0:
  16              		.cfi_sections	.debug_frame
  17              		.section	.text.HAL_SPI_Init,"ax",%progbits
  18              		.align	1
  19              		.global	HAL_SPI_Init
  20              		.syntax unified
  21              		.thumb
  22              		.thumb_func
  24              	HAL_SPI_Init:
  25              	.LFB65:
  26              		.file 1 "Drivers/STM32F1xx_HAL_Driver/Src/stm32f1xx_hal_spi.c"
   1:Drivers/STM32F1xx_HAL_Driver/Src/stm32f1xx_hal_spi.c **** /**
   2:Drivers/STM32F1xx_HAL_Driver/Src/stm32f1xx_hal_spi.c ****   ******************************************************************************
   3:Drivers/STM32F1xx_HAL_Driver/Src/stm32f1xx_hal_spi.c ****   * @file    stm32f1xx_hal_spi.c
   4:Drivers/STM32F1xx_HAL_Driver/Src/stm32f1xx_hal_spi.c ****   * @author  MCD Application Team
   5:Drivers/STM32F1xx_HAL_Driver/Src/stm32f1xx_hal_spi.c ****   * @brief   SPI HAL module driver.
   6:Drivers/STM32F1xx_HAL_Driver/Src/stm32f1xx_hal_spi.c ****   *          This file provides firmware functions to manage the following
   7:Drivers/STM32F1xx_HAL_Driver/Src/stm32f1xx_hal_spi.c ****   *          functionalities of the Serial Peripheral Interface (SPI) peripheral:
   8:Drivers/STM32F1xx_HAL_Driver/Src/stm32f1xx_hal_spi.c ****   *           + Initialization and de-initialization functions
   9:Drivers/STM32F1xx_HAL_Driver/Src/stm32f1xx_hal_spi.c ****   *           + IO operation functions
  10:Drivers/STM32F1xx_HAL_Driver/Src/stm32f1xx_hal_spi.c ****   *           + Peripheral Control functions
  11:Drivers/STM32F1xx_HAL_Driver/Src/stm32f1xx_hal_spi.c ****   *           + Peripheral State functions
  12:Drivers/STM32F1xx_HAL_Driver/Src/stm32f1xx_hal_spi.c ****   ******************************************************************************
  13:Drivers/STM32F1xx_HAL_Driver/Src/stm32f1xx_hal_spi.c ****   * @attention
  14:Drivers/STM32F1xx_HAL_Driver/Src/stm32f1xx_hal_spi.c ****   *
  15:Drivers/STM32F1xx_HAL_Driver/Src/stm32f1xx_hal_spi.c ****   * Copyright (c) 2016 STMicroelectronics.
  16:Drivers/STM32F1xx_HAL_Driver/Src/stm32f1xx_hal_spi.c ****   * All rights reserved.
  17:Drivers/STM32F1xx_HAL_Driver/Src/stm32f1xx_hal_spi.c ****   *
  18:Drivers/STM32F1xx_HAL_Driver/Src/stm32f1xx_hal_spi.c ****   * This software is licensed under terms that can be found in the LICENSE file
  19:Drivers/STM32F1xx_HAL_Driver/Src/stm32f1xx_hal_spi.c ****   * in the root directory of this software component.
  20:Drivers/STM32F1xx_HAL_Driver/Src/stm32f1xx_hal_spi.c ****   * If no LICENSE file comes with this software, it is provided AS-IS.
  21:Drivers/STM32F1xx_HAL_Driver/Src/stm32f1xx_hal_spi.c ****   *
  22:Drivers/STM32F1xx_HAL_Driver/Src/stm32f1xx_hal_spi.c ****   ******************************************************************************
  23:Drivers/STM32F1xx_HAL_Driver/Src/stm32f1xx_hal_spi.c ****   @verbatim
  24:Drivers/STM32F1xx_HAL_Driver/Src/stm32f1xx_hal_spi.c ****   ==============================================================================
  25:Drivers/STM32F1xx_HAL_Driver/Src/stm32f1xx_hal_spi.c ****                         ##### How to use this driver #####
  26:Drivers/STM32F1xx_HAL_Driver/Src/stm32f1xx_hal_spi.c ****   ==============================================================================
  27:Drivers/STM32F1xx_HAL_Driver/Src/stm32f1xx_hal_spi.c ****     [..]
  28:Drivers/STM32F1xx_HAL_Driver/Src/stm32f1xx_hal_spi.c ****       The SPI HAL driver can be used as follows:
  29:Drivers/STM32F1xx_HAL_Driver/Src/stm32f1xx_hal_spi.c **** 
  30:Drivers/STM32F1xx_HAL_Driver/Src/stm32f1xx_hal_spi.c ****       (#) Declare a SPI_HandleTypeDef handle structure, for example:
  31:Drivers/STM32F1xx_HAL_Driver/Src/stm32f1xx_hal_spi.c ****           SPI_HandleTypeDef  hspi;
  32:Drivers/STM32F1xx_HAL_Driver/Src/stm32f1xx_hal_spi.c **** 
ARM GAS  C:\Users\Matvey\AppData\Local\Temp\ccf8E5QD.s 			page 2


  33:Drivers/STM32F1xx_HAL_Driver/Src/stm32f1xx_hal_spi.c ****       (#)Initialize the SPI low level resources by implementing the HAL_SPI_MspInit() API:
  34:Drivers/STM32F1xx_HAL_Driver/Src/stm32f1xx_hal_spi.c ****           (##) Enable the SPIx interface clock
  35:Drivers/STM32F1xx_HAL_Driver/Src/stm32f1xx_hal_spi.c ****           (##) SPI pins configuration
  36:Drivers/STM32F1xx_HAL_Driver/Src/stm32f1xx_hal_spi.c ****               (+++) Enable the clock for the SPI GPIOs
  37:Drivers/STM32F1xx_HAL_Driver/Src/stm32f1xx_hal_spi.c ****               (+++) Configure these SPI pins as alternate function push-pull
  38:Drivers/STM32F1xx_HAL_Driver/Src/stm32f1xx_hal_spi.c ****           (##) NVIC configuration if you need to use interrupt process
  39:Drivers/STM32F1xx_HAL_Driver/Src/stm32f1xx_hal_spi.c ****               (+++) Configure the SPIx interrupt priority
  40:Drivers/STM32F1xx_HAL_Driver/Src/stm32f1xx_hal_spi.c ****               (+++) Enable the NVIC SPI IRQ handle
  41:Drivers/STM32F1xx_HAL_Driver/Src/stm32f1xx_hal_spi.c ****           (##) DMA Configuration if you need to use DMA process
  42:Drivers/STM32F1xx_HAL_Driver/Src/stm32f1xx_hal_spi.c ****               (+++) Declare a DMA_HandleTypeDef handle structure for the transmit or receive Stream
  43:Drivers/STM32F1xx_HAL_Driver/Src/stm32f1xx_hal_spi.c ****               (+++) Enable the DMAx clock
  44:Drivers/STM32F1xx_HAL_Driver/Src/stm32f1xx_hal_spi.c ****               (+++) Configure the DMA handle parameters
  45:Drivers/STM32F1xx_HAL_Driver/Src/stm32f1xx_hal_spi.c ****               (+++) Configure the DMA Tx or Rx Stream/Channel
  46:Drivers/STM32F1xx_HAL_Driver/Src/stm32f1xx_hal_spi.c ****               (+++) Associate the initialized hdma_tx(or _rx)  handle to the hspi DMA Tx or Rx hand
  47:Drivers/STM32F1xx_HAL_Driver/Src/stm32f1xx_hal_spi.c ****               (+++) Configure the priority and enable the NVIC for the transfer complete interrupt 
  48:Drivers/STM32F1xx_HAL_Driver/Src/stm32f1xx_hal_spi.c **** 
  49:Drivers/STM32F1xx_HAL_Driver/Src/stm32f1xx_hal_spi.c ****       (#) Program the Mode, BidirectionalMode , Data size, Baudrate Prescaler, NSS
  50:Drivers/STM32F1xx_HAL_Driver/Src/stm32f1xx_hal_spi.c ****           management, Clock polarity and phase, FirstBit and CRC configuration in the hspi Init str
  51:Drivers/STM32F1xx_HAL_Driver/Src/stm32f1xx_hal_spi.c **** 
  52:Drivers/STM32F1xx_HAL_Driver/Src/stm32f1xx_hal_spi.c ****       (#) Initialize the SPI registers by calling the HAL_SPI_Init() API:
  53:Drivers/STM32F1xx_HAL_Driver/Src/stm32f1xx_hal_spi.c ****           (++) This API configures also the low level Hardware GPIO, CLOCK, CORTEX...etc)
  54:Drivers/STM32F1xx_HAL_Driver/Src/stm32f1xx_hal_spi.c ****               by calling the customized HAL_SPI_MspInit() API.
  55:Drivers/STM32F1xx_HAL_Driver/Src/stm32f1xx_hal_spi.c ****      [..]
  56:Drivers/STM32F1xx_HAL_Driver/Src/stm32f1xx_hal_spi.c ****        Circular mode restriction:
  57:Drivers/STM32F1xx_HAL_Driver/Src/stm32f1xx_hal_spi.c ****       (#) The DMA circular mode cannot be used when the SPI is configured in these modes:
  58:Drivers/STM32F1xx_HAL_Driver/Src/stm32f1xx_hal_spi.c ****           (##) Master 2Lines RxOnly
  59:Drivers/STM32F1xx_HAL_Driver/Src/stm32f1xx_hal_spi.c ****           (##) Master 1Line Rx
  60:Drivers/STM32F1xx_HAL_Driver/Src/stm32f1xx_hal_spi.c ****       (#) The CRC feature is not managed when the DMA circular mode is enabled
  61:Drivers/STM32F1xx_HAL_Driver/Src/stm32f1xx_hal_spi.c ****       (#) When the SPI DMA Pause/Stop features are used, we must use the following APIs
  62:Drivers/STM32F1xx_HAL_Driver/Src/stm32f1xx_hal_spi.c ****           the HAL_SPI_DMAPause()/ HAL_SPI_DMAStop() only under the SPI callbacks
  63:Drivers/STM32F1xx_HAL_Driver/Src/stm32f1xx_hal_spi.c ****      [..]
  64:Drivers/STM32F1xx_HAL_Driver/Src/stm32f1xx_hal_spi.c ****        Master Receive mode restriction:
  65:Drivers/STM32F1xx_HAL_Driver/Src/stm32f1xx_hal_spi.c ****       (#) In Master unidirectional receive-only mode (MSTR =1, BIDIMODE=0, RXONLY=1) or
  66:Drivers/STM32F1xx_HAL_Driver/Src/stm32f1xx_hal_spi.c ****           bidirectional receive mode (MSTR=1, BIDIMODE=1, BIDIOE=0), to ensure that the SPI
  67:Drivers/STM32F1xx_HAL_Driver/Src/stm32f1xx_hal_spi.c ****           does not initiate a new transfer the following procedure has to be respected:
  68:Drivers/STM32F1xx_HAL_Driver/Src/stm32f1xx_hal_spi.c ****           (##) HAL_SPI_DeInit()
  69:Drivers/STM32F1xx_HAL_Driver/Src/stm32f1xx_hal_spi.c ****           (##) HAL_SPI_Init()
  70:Drivers/STM32F1xx_HAL_Driver/Src/stm32f1xx_hal_spi.c ****      [..]
  71:Drivers/STM32F1xx_HAL_Driver/Src/stm32f1xx_hal_spi.c ****        Callback registration:
  72:Drivers/STM32F1xx_HAL_Driver/Src/stm32f1xx_hal_spi.c **** 
  73:Drivers/STM32F1xx_HAL_Driver/Src/stm32f1xx_hal_spi.c ****       (#) The compilation flag USE_HAL_SPI_REGISTER_CALLBACKS when set to 1U
  74:Drivers/STM32F1xx_HAL_Driver/Src/stm32f1xx_hal_spi.c ****           allows the user to configure dynamically the driver callbacks.
  75:Drivers/STM32F1xx_HAL_Driver/Src/stm32f1xx_hal_spi.c ****           Use Functions HAL_SPI_RegisterCallback() to register an interrupt callback.
  76:Drivers/STM32F1xx_HAL_Driver/Src/stm32f1xx_hal_spi.c **** 
  77:Drivers/STM32F1xx_HAL_Driver/Src/stm32f1xx_hal_spi.c ****           Function HAL_SPI_RegisterCallback() allows to register following callbacks:
  78:Drivers/STM32F1xx_HAL_Driver/Src/stm32f1xx_hal_spi.c ****             (++) TxCpltCallback        : SPI Tx Completed callback
  79:Drivers/STM32F1xx_HAL_Driver/Src/stm32f1xx_hal_spi.c ****             (++) RxCpltCallback        : SPI Rx Completed callback
  80:Drivers/STM32F1xx_HAL_Driver/Src/stm32f1xx_hal_spi.c ****             (++) TxRxCpltCallback      : SPI TxRx Completed callback
  81:Drivers/STM32F1xx_HAL_Driver/Src/stm32f1xx_hal_spi.c ****             (++) TxHalfCpltCallback    : SPI Tx Half Completed callback
  82:Drivers/STM32F1xx_HAL_Driver/Src/stm32f1xx_hal_spi.c ****             (++) RxHalfCpltCallback    : SPI Rx Half Completed callback
  83:Drivers/STM32F1xx_HAL_Driver/Src/stm32f1xx_hal_spi.c ****             (++) TxRxHalfCpltCallback  : SPI TxRx Half Completed callback
  84:Drivers/STM32F1xx_HAL_Driver/Src/stm32f1xx_hal_spi.c ****             (++) ErrorCallback         : SPI Error callback
  85:Drivers/STM32F1xx_HAL_Driver/Src/stm32f1xx_hal_spi.c ****             (++) AbortCpltCallback     : SPI Abort callback
  86:Drivers/STM32F1xx_HAL_Driver/Src/stm32f1xx_hal_spi.c ****             (++) MspInitCallback       : SPI Msp Init callback
  87:Drivers/STM32F1xx_HAL_Driver/Src/stm32f1xx_hal_spi.c ****             (++) MspDeInitCallback     : SPI Msp DeInit callback
  88:Drivers/STM32F1xx_HAL_Driver/Src/stm32f1xx_hal_spi.c ****           This function takes as parameters the HAL peripheral handle, the Callback ID
  89:Drivers/STM32F1xx_HAL_Driver/Src/stm32f1xx_hal_spi.c ****           and a pointer to the user callback function.
ARM GAS  C:\Users\Matvey\AppData\Local\Temp\ccf8E5QD.s 			page 3


  90:Drivers/STM32F1xx_HAL_Driver/Src/stm32f1xx_hal_spi.c **** 
  91:Drivers/STM32F1xx_HAL_Driver/Src/stm32f1xx_hal_spi.c **** 
  92:Drivers/STM32F1xx_HAL_Driver/Src/stm32f1xx_hal_spi.c ****       (#) Use function HAL_SPI_UnRegisterCallback to reset a callback to the default
  93:Drivers/STM32F1xx_HAL_Driver/Src/stm32f1xx_hal_spi.c ****           weak function.
  94:Drivers/STM32F1xx_HAL_Driver/Src/stm32f1xx_hal_spi.c ****           HAL_SPI_UnRegisterCallback takes as parameters the HAL peripheral handle,
  95:Drivers/STM32F1xx_HAL_Driver/Src/stm32f1xx_hal_spi.c ****           and the Callback ID.
  96:Drivers/STM32F1xx_HAL_Driver/Src/stm32f1xx_hal_spi.c ****           This function allows to reset following callbacks:
  97:Drivers/STM32F1xx_HAL_Driver/Src/stm32f1xx_hal_spi.c ****             (++) TxCpltCallback        : SPI Tx Completed callback
  98:Drivers/STM32F1xx_HAL_Driver/Src/stm32f1xx_hal_spi.c ****             (++) RxCpltCallback        : SPI Rx Completed callback
  99:Drivers/STM32F1xx_HAL_Driver/Src/stm32f1xx_hal_spi.c ****             (++) TxRxCpltCallback      : SPI TxRx Completed callback
 100:Drivers/STM32F1xx_HAL_Driver/Src/stm32f1xx_hal_spi.c ****             (++) TxHalfCpltCallback    : SPI Tx Half Completed callback
 101:Drivers/STM32F1xx_HAL_Driver/Src/stm32f1xx_hal_spi.c ****             (++) RxHalfCpltCallback    : SPI Rx Half Completed callback
 102:Drivers/STM32F1xx_HAL_Driver/Src/stm32f1xx_hal_spi.c ****             (++) TxRxHalfCpltCallback  : SPI TxRx Half Completed callback
 103:Drivers/STM32F1xx_HAL_Driver/Src/stm32f1xx_hal_spi.c ****             (++) ErrorCallback         : SPI Error callback
 104:Drivers/STM32F1xx_HAL_Driver/Src/stm32f1xx_hal_spi.c ****             (++) AbortCpltCallback     : SPI Abort callback
 105:Drivers/STM32F1xx_HAL_Driver/Src/stm32f1xx_hal_spi.c ****             (++) MspInitCallback       : SPI Msp Init callback
 106:Drivers/STM32F1xx_HAL_Driver/Src/stm32f1xx_hal_spi.c ****             (++) MspDeInitCallback     : SPI Msp DeInit callback
 107:Drivers/STM32F1xx_HAL_Driver/Src/stm32f1xx_hal_spi.c **** 
 108:Drivers/STM32F1xx_HAL_Driver/Src/stm32f1xx_hal_spi.c ****        [..]
 109:Drivers/STM32F1xx_HAL_Driver/Src/stm32f1xx_hal_spi.c ****        By default, after the HAL_SPI_Init() and when the state is HAL_SPI_STATE_RESET
 110:Drivers/STM32F1xx_HAL_Driver/Src/stm32f1xx_hal_spi.c ****        all callbacks are set to the corresponding weak functions:
 111:Drivers/STM32F1xx_HAL_Driver/Src/stm32f1xx_hal_spi.c ****        examples HAL_SPI_MasterTxCpltCallback(), HAL_SPI_MasterRxCpltCallback().
 112:Drivers/STM32F1xx_HAL_Driver/Src/stm32f1xx_hal_spi.c ****        Exception done for MspInit and MspDeInit functions that are
 113:Drivers/STM32F1xx_HAL_Driver/Src/stm32f1xx_hal_spi.c ****        reset to the legacy weak functions in the HAL_SPI_Init()/ HAL_SPI_DeInit() only when
 114:Drivers/STM32F1xx_HAL_Driver/Src/stm32f1xx_hal_spi.c ****        these callbacks are null (not registered beforehand).
 115:Drivers/STM32F1xx_HAL_Driver/Src/stm32f1xx_hal_spi.c ****        If MspInit or MspDeInit are not null, the HAL_SPI_Init()/ HAL_SPI_DeInit()
 116:Drivers/STM32F1xx_HAL_Driver/Src/stm32f1xx_hal_spi.c ****        keep and use the user MspInit/MspDeInit callbacks (registered beforehand) whatever the state
 117:Drivers/STM32F1xx_HAL_Driver/Src/stm32f1xx_hal_spi.c **** 
 118:Drivers/STM32F1xx_HAL_Driver/Src/stm32f1xx_hal_spi.c ****        [..]
 119:Drivers/STM32F1xx_HAL_Driver/Src/stm32f1xx_hal_spi.c ****        Callbacks can be registered/unregistered in HAL_SPI_STATE_READY state only.
 120:Drivers/STM32F1xx_HAL_Driver/Src/stm32f1xx_hal_spi.c ****        Exception done MspInit/MspDeInit functions that can be registered/unregistered
 121:Drivers/STM32F1xx_HAL_Driver/Src/stm32f1xx_hal_spi.c ****        in HAL_SPI_STATE_READY or HAL_SPI_STATE_RESET state,
 122:Drivers/STM32F1xx_HAL_Driver/Src/stm32f1xx_hal_spi.c ****        thus registered (user) MspInit/DeInit callbacks can be used during the Init/DeInit.
 123:Drivers/STM32F1xx_HAL_Driver/Src/stm32f1xx_hal_spi.c ****        Then, the user first registers the MspInit/MspDeInit user callbacks
 124:Drivers/STM32F1xx_HAL_Driver/Src/stm32f1xx_hal_spi.c ****        using HAL_SPI_RegisterCallback() before calling HAL_SPI_DeInit()
 125:Drivers/STM32F1xx_HAL_Driver/Src/stm32f1xx_hal_spi.c ****        or HAL_SPI_Init() function.
 126:Drivers/STM32F1xx_HAL_Driver/Src/stm32f1xx_hal_spi.c **** 
 127:Drivers/STM32F1xx_HAL_Driver/Src/stm32f1xx_hal_spi.c ****        [..]
 128:Drivers/STM32F1xx_HAL_Driver/Src/stm32f1xx_hal_spi.c ****        When the compilation define USE_HAL_PPP_REGISTER_CALLBACKS is set to 0 or
 129:Drivers/STM32F1xx_HAL_Driver/Src/stm32f1xx_hal_spi.c ****        not defined, the callback registering feature is not available
 130:Drivers/STM32F1xx_HAL_Driver/Src/stm32f1xx_hal_spi.c ****        and weak (surcharged) callbacks are used.
 131:Drivers/STM32F1xx_HAL_Driver/Src/stm32f1xx_hal_spi.c **** 
 132:Drivers/STM32F1xx_HAL_Driver/Src/stm32f1xx_hal_spi.c ****      [..]
 133:Drivers/STM32F1xx_HAL_Driver/Src/stm32f1xx_hal_spi.c ****        Using the HAL it is not possible to reach all supported SPI frequency with the different SPI
 134:Drivers/STM32F1xx_HAL_Driver/Src/stm32f1xx_hal_spi.c ****        the following table resume the max SPI frequency reached with data size 8bits/16bits,
 135:Drivers/STM32F1xx_HAL_Driver/Src/stm32f1xx_hal_spi.c ****          according to frequency of the APBx Peripheral Clock (fPCLK) used by the SPI instance.
 136:Drivers/STM32F1xx_HAL_Driver/Src/stm32f1xx_hal_spi.c **** 
 137:Drivers/STM32F1xx_HAL_Driver/Src/stm32f1xx_hal_spi.c ****   @endverbatim
 138:Drivers/STM32F1xx_HAL_Driver/Src/stm32f1xx_hal_spi.c **** 
 139:Drivers/STM32F1xx_HAL_Driver/Src/stm32f1xx_hal_spi.c ****   Additional table :
 140:Drivers/STM32F1xx_HAL_Driver/Src/stm32f1xx_hal_spi.c **** 
 141:Drivers/STM32F1xx_HAL_Driver/Src/stm32f1xx_hal_spi.c ****        DataSize = SPI_DATASIZE_8BIT:
 142:Drivers/STM32F1xx_HAL_Driver/Src/stm32f1xx_hal_spi.c ****        +-------------------------------------------------------------------------------------------
 143:Drivers/STM32F1xx_HAL_Driver/Src/stm32f1xx_hal_spi.c ****        |         |                | 2Lines Fullduplex   |     2Lines RxOnly    |         1Line     
 144:Drivers/STM32F1xx_HAL_Driver/Src/stm32f1xx_hal_spi.c ****        | Process | Transfer mode  |---------------------|----------------------|-------------------
 145:Drivers/STM32F1xx_HAL_Driver/Src/stm32f1xx_hal_spi.c ****        |         |                |  Master  |  Slave   |  Master   |  Slave   |  Master   |  Slave
 146:Drivers/STM32F1xx_HAL_Driver/Src/stm32f1xx_hal_spi.c ****        |===========================================================================================
ARM GAS  C:\Users\Matvey\AppData\Local\Temp\ccf8E5QD.s 			page 4


 147:Drivers/STM32F1xx_HAL_Driver/Src/stm32f1xx_hal_spi.c ****        |    T    |     Polling    | Fpclk/2  | Fpclk/2  |    NA     |    NA    |    NA     |   NA  
 148:Drivers/STM32F1xx_HAL_Driver/Src/stm32f1xx_hal_spi.c ****        |    X    |----------------|----------|----------|-----------|----------|-----------|-------
 149:Drivers/STM32F1xx_HAL_Driver/Src/stm32f1xx_hal_spi.c ****        |    /    |     Interrupt  | Fpclk/4  | Fpclk/8  |    NA     |    NA    |    NA     |   NA  
 150:Drivers/STM32F1xx_HAL_Driver/Src/stm32f1xx_hal_spi.c ****        |    R    |----------------|----------|----------|-----------|----------|-----------|-------
 151:Drivers/STM32F1xx_HAL_Driver/Src/stm32f1xx_hal_spi.c ****        |    X    |       DMA      | Fpclk/2  | Fpclk/2  |    NA     |    NA    |    NA     |   NA  
 152:Drivers/STM32F1xx_HAL_Driver/Src/stm32f1xx_hal_spi.c ****        |=========|================|==========|==========|===========|==========|===========|=======
 153:Drivers/STM32F1xx_HAL_Driver/Src/stm32f1xx_hal_spi.c ****        |         |     Polling    | Fpclk/2  | Fpclk/2  | Fpclk/64  | Fpclk/2  | Fpclk/64  | Fpclk/
 154:Drivers/STM32F1xx_HAL_Driver/Src/stm32f1xx_hal_spi.c ****        |         |----------------|----------|----------|-----------|----------|-----------|-------
 155:Drivers/STM32F1xx_HAL_Driver/Src/stm32f1xx_hal_spi.c ****        |    R    |     Interrupt  | Fpclk/8  | Fpclk/8  | Fpclk/64  | Fpclk/2  | Fpclk/64  | Fpclk/
 156:Drivers/STM32F1xx_HAL_Driver/Src/stm32f1xx_hal_spi.c ****        |    X    |----------------|----------|----------|-----------|----------|-----------|-------
 157:Drivers/STM32F1xx_HAL_Driver/Src/stm32f1xx_hal_spi.c ****        |         |       DMA      | Fpclk/2  | Fpclk/2  | Fpclk/64  | Fpclk/2  | Fpclk/128 | Fpclk/
 158:Drivers/STM32F1xx_HAL_Driver/Src/stm32f1xx_hal_spi.c ****        |=========|================|==========|==========|===========|==========|===========|=======
 159:Drivers/STM32F1xx_HAL_Driver/Src/stm32f1xx_hal_spi.c ****        |         |     Polling    | Fpclk/2  | Fpclk/4  |     NA    |    NA    | Fpclk/2   | Fpclk/
 160:Drivers/STM32F1xx_HAL_Driver/Src/stm32f1xx_hal_spi.c ****        |         |----------------|----------|----------|-----------|----------|-----------|-------
 161:Drivers/STM32F1xx_HAL_Driver/Src/stm32f1xx_hal_spi.c ****        |    T    |     Interrupt  | Fpclk/2  | Fpclk/4  |     NA    |    NA    | Fpclk/2   | Fpclk/
 162:Drivers/STM32F1xx_HAL_Driver/Src/stm32f1xx_hal_spi.c ****        |    X    |----------------|----------|----------|-----------|----------|-----------|-------
 163:Drivers/STM32F1xx_HAL_Driver/Src/stm32f1xx_hal_spi.c ****        |         |       DMA      | Fpclk/2  | Fpclk/2  |     NA    |    NA    | Fpclk/2   | Fpclk/
 164:Drivers/STM32F1xx_HAL_Driver/Src/stm32f1xx_hal_spi.c ****        +-------------------------------------------------------------------------------------------
 165:Drivers/STM32F1xx_HAL_Driver/Src/stm32f1xx_hal_spi.c **** 
 166:Drivers/STM32F1xx_HAL_Driver/Src/stm32f1xx_hal_spi.c ****        DataSize = SPI_DATASIZE_16BIT:
 167:Drivers/STM32F1xx_HAL_Driver/Src/stm32f1xx_hal_spi.c ****        +-------------------------------------------------------------------------------------------
 168:Drivers/STM32F1xx_HAL_Driver/Src/stm32f1xx_hal_spi.c ****        |         |                | 2Lines Fullduplex   |     2Lines RxOnly    |         1Line     
 169:Drivers/STM32F1xx_HAL_Driver/Src/stm32f1xx_hal_spi.c ****        | Process | Transfer mode  |---------------------|----------------------|-------------------
 170:Drivers/STM32F1xx_HAL_Driver/Src/stm32f1xx_hal_spi.c ****        |         |                |  Master  |  Slave   |  Master   |  Slave   |  Master   |  Slave
 171:Drivers/STM32F1xx_HAL_Driver/Src/stm32f1xx_hal_spi.c ****        |===========================================================================================
 172:Drivers/STM32F1xx_HAL_Driver/Src/stm32f1xx_hal_spi.c ****        |    T    |     Polling    | Fpclk/2  | Fpclk/2  |    NA     |    NA    |    NA     |   NA  
 173:Drivers/STM32F1xx_HAL_Driver/Src/stm32f1xx_hal_spi.c ****        |    X    |----------------|----------|----------|-----------|----------|-----------|-------
 174:Drivers/STM32F1xx_HAL_Driver/Src/stm32f1xx_hal_spi.c ****        |    /    |     Interrupt  | Fpclk/4  | Fpclk/4  |    NA     |    NA    |    NA     |   NA  
 175:Drivers/STM32F1xx_HAL_Driver/Src/stm32f1xx_hal_spi.c ****        |    R    |----------------|----------|----------|-----------|----------|-----------|-------
 176:Drivers/STM32F1xx_HAL_Driver/Src/stm32f1xx_hal_spi.c ****        |    X    |       DMA      | Fpclk/2  | Fpclk/2  |    NA     |    NA    |    NA     |   NA  
 177:Drivers/STM32F1xx_HAL_Driver/Src/stm32f1xx_hal_spi.c ****        |=========|================|==========|==========|===========|==========|===========|=======
 178:Drivers/STM32F1xx_HAL_Driver/Src/stm32f1xx_hal_spi.c ****        |         |     Polling    | Fpclk/2  | Fpclk/2  | Fpclk/64  | Fpclk/2  | Fpclk/32  | Fpclk/
 179:Drivers/STM32F1xx_HAL_Driver/Src/stm32f1xx_hal_spi.c ****        |         |----------------|----------|----------|-----------|----------|-----------|-------
 180:Drivers/STM32F1xx_HAL_Driver/Src/stm32f1xx_hal_spi.c ****        |    R    |     Interrupt  | Fpclk/4  | Fpclk/4  | Fpclk/64  | Fpclk/2  | Fpclk/64  | Fpclk/
 181:Drivers/STM32F1xx_HAL_Driver/Src/stm32f1xx_hal_spi.c ****        |    X    |----------------|----------|----------|-----------|----------|-----------|-------
 182:Drivers/STM32F1xx_HAL_Driver/Src/stm32f1xx_hal_spi.c ****        |         |       DMA      | Fpclk/2  | Fpclk/2  | Fpclk/64  | Fpclk/2  | Fpclk/128 | Fpclk/
 183:Drivers/STM32F1xx_HAL_Driver/Src/stm32f1xx_hal_spi.c ****        |=========|================|==========|==========|===========|==========|===========|=======
 184:Drivers/STM32F1xx_HAL_Driver/Src/stm32f1xx_hal_spi.c ****        |         |     Polling    | Fpclk/2  | Fpclk/2  |     NA    |    NA    | Fpclk/2   | Fpclk/
 185:Drivers/STM32F1xx_HAL_Driver/Src/stm32f1xx_hal_spi.c ****        |         |----------------|----------|----------|-----------|----------|-----------|-------
 186:Drivers/STM32F1xx_HAL_Driver/Src/stm32f1xx_hal_spi.c ****        |    T    |     Interrupt  | Fpclk/2  | Fpclk/2  |     NA    |    NA    | Fpclk/2   | Fpclk/
 187:Drivers/STM32F1xx_HAL_Driver/Src/stm32f1xx_hal_spi.c ****        |    X    |----------------|----------|----------|-----------|----------|-----------|-------
 188:Drivers/STM32F1xx_HAL_Driver/Src/stm32f1xx_hal_spi.c ****        |         |       DMA      | Fpclk/2  | Fpclk/2  |     NA    |    NA    | Fpclk/2   | Fpclk/
 189:Drivers/STM32F1xx_HAL_Driver/Src/stm32f1xx_hal_spi.c ****        +-------------------------------------------------------------------------------------------
 190:Drivers/STM32F1xx_HAL_Driver/Src/stm32f1xx_hal_spi.c ****        @note The max SPI frequency depend on SPI data size (8bits, 16bits),
 191:Drivers/STM32F1xx_HAL_Driver/Src/stm32f1xx_hal_spi.c ****              SPI mode(2 Lines fullduplex, 2 lines RxOnly, 1 line TX/RX) and Process mode (Polling, 
 192:Drivers/STM32F1xx_HAL_Driver/Src/stm32f1xx_hal_spi.c ****        @note
 193:Drivers/STM32F1xx_HAL_Driver/Src/stm32f1xx_hal_spi.c ****             (#) TX/RX processes are HAL_SPI_TransmitReceive(), HAL_SPI_TransmitReceive_IT() and HAL
 194:Drivers/STM32F1xx_HAL_Driver/Src/stm32f1xx_hal_spi.c ****             (#) RX processes are HAL_SPI_Receive(), HAL_SPI_Receive_IT() and HAL_SPI_Receive_DMA()
 195:Drivers/STM32F1xx_HAL_Driver/Src/stm32f1xx_hal_spi.c ****             (#) TX processes are HAL_SPI_Transmit(), HAL_SPI_Transmit_IT() and HAL_SPI_Transmit_DMA
 196:Drivers/STM32F1xx_HAL_Driver/Src/stm32f1xx_hal_spi.c **** 
 197:Drivers/STM32F1xx_HAL_Driver/Src/stm32f1xx_hal_spi.c ****   */
 198:Drivers/STM32F1xx_HAL_Driver/Src/stm32f1xx_hal_spi.c **** 
 199:Drivers/STM32F1xx_HAL_Driver/Src/stm32f1xx_hal_spi.c **** /* Includes ------------------------------------------------------------------*/
 200:Drivers/STM32F1xx_HAL_Driver/Src/stm32f1xx_hal_spi.c **** #include "stm32f1xx_hal.h"
 201:Drivers/STM32F1xx_HAL_Driver/Src/stm32f1xx_hal_spi.c **** 
 202:Drivers/STM32F1xx_HAL_Driver/Src/stm32f1xx_hal_spi.c **** /** @addtogroup STM32F1xx_HAL_Driver
 203:Drivers/STM32F1xx_HAL_Driver/Src/stm32f1xx_hal_spi.c ****   * @{
ARM GAS  C:\Users\Matvey\AppData\Local\Temp\ccf8E5QD.s 			page 5


 204:Drivers/STM32F1xx_HAL_Driver/Src/stm32f1xx_hal_spi.c ****   */
 205:Drivers/STM32F1xx_HAL_Driver/Src/stm32f1xx_hal_spi.c **** 
 206:Drivers/STM32F1xx_HAL_Driver/Src/stm32f1xx_hal_spi.c **** /** @defgroup SPI SPI
 207:Drivers/STM32F1xx_HAL_Driver/Src/stm32f1xx_hal_spi.c ****   * @brief SPI HAL module driver
 208:Drivers/STM32F1xx_HAL_Driver/Src/stm32f1xx_hal_spi.c ****   * @{
 209:Drivers/STM32F1xx_HAL_Driver/Src/stm32f1xx_hal_spi.c ****   */
 210:Drivers/STM32F1xx_HAL_Driver/Src/stm32f1xx_hal_spi.c **** #ifdef HAL_SPI_MODULE_ENABLED
 211:Drivers/STM32F1xx_HAL_Driver/Src/stm32f1xx_hal_spi.c **** 
 212:Drivers/STM32F1xx_HAL_Driver/Src/stm32f1xx_hal_spi.c **** /* Private typedef -----------------------------------------------------------*/
 213:Drivers/STM32F1xx_HAL_Driver/Src/stm32f1xx_hal_spi.c **** /* Private defines -----------------------------------------------------------*/
 214:Drivers/STM32F1xx_HAL_Driver/Src/stm32f1xx_hal_spi.c **** #if (USE_SPI_CRC != 0U) && defined(SPI_CRC_ERROR_WORKAROUND_FEATURE)
 215:Drivers/STM32F1xx_HAL_Driver/Src/stm32f1xx_hal_spi.c **** /* CRC WORKAROUND FEATURE: Variable used to determine if device is impacted by implementation
 216:Drivers/STM32F1xx_HAL_Driver/Src/stm32f1xx_hal_spi.c ****  * of workaround related to wrong CRC errors detection on SPI2. Conditions in which this workaround
 217:Drivers/STM32F1xx_HAL_Driver/Src/stm32f1xx_hal_spi.c ****  * has to be applied, are:
 218:Drivers/STM32F1xx_HAL_Driver/Src/stm32f1xx_hal_spi.c ****  *  - STM32F101CDE/STM32F103CDE
 219:Drivers/STM32F1xx_HAL_Driver/Src/stm32f1xx_hal_spi.c ****  *  - Revision ID : Z
 220:Drivers/STM32F1xx_HAL_Driver/Src/stm32f1xx_hal_spi.c ****  *  - SPI2
 221:Drivers/STM32F1xx_HAL_Driver/Src/stm32f1xx_hal_spi.c ****  *  - In receive only mode, with CRC calculation enabled, at the end of the CRC reception,
 222:Drivers/STM32F1xx_HAL_Driver/Src/stm32f1xx_hal_spi.c ****  *     the software needs to check the CRCERR flag. If it is found set, read back the SPI_RXCRC:
 223:Drivers/STM32F1xx_HAL_Driver/Src/stm32f1xx_hal_spi.c ****  *       + If the value is 0, the complete data transfer is successful.
 224:Drivers/STM32F1xx_HAL_Driver/Src/stm32f1xx_hal_spi.c ****  *       + Otherwise, one or more errors have been detected during the data transfer by CPU or DMA.
 225:Drivers/STM32F1xx_HAL_Driver/Src/stm32f1xx_hal_spi.c ****  *    If CRCERR is found reset, the complete data transfer is considered successful.
 226:Drivers/STM32F1xx_HAL_Driver/Src/stm32f1xx_hal_spi.c ****  *
 227:Drivers/STM32F1xx_HAL_Driver/Src/stm32f1xx_hal_spi.c ****  * Check RevisionID value for identifying if Device is Rev Z (0x0001) in order to enable workaround
 228:Drivers/STM32F1xx_HAL_Driver/Src/stm32f1xx_hal_spi.c ****  * CRC errors wrongly detected
 229:Drivers/STM32F1xx_HAL_Driver/Src/stm32f1xx_hal_spi.c ****  */
 230:Drivers/STM32F1xx_HAL_Driver/Src/stm32f1xx_hal_spi.c **** /* Pb is that ES_STM32F10xxCDE also identify an issue in Debug registers access while not in Debug 
 231:Drivers/STM32F1xx_HAL_Driver/Src/stm32f1xx_hal_spi.c ****  * Revision ID information is only available in Debug mode, so Workaround could not be implemented
 232:Drivers/STM32F1xx_HAL_Driver/Src/stm32f1xx_hal_spi.c ****  * to distinguish Rev Z devices (issue present) from more recent version (issue fixed).
 233:Drivers/STM32F1xx_HAL_Driver/Src/stm32f1xx_hal_spi.c ****  * So, in case of Revision Z F101 or F103 devices, below define should be assigned to 1.
 234:Drivers/STM32F1xx_HAL_Driver/Src/stm32f1xx_hal_spi.c ****  */
 235:Drivers/STM32F1xx_HAL_Driver/Src/stm32f1xx_hal_spi.c **** #define  USE_SPI_CRC_ERROR_WORKAROUND   0U
 236:Drivers/STM32F1xx_HAL_Driver/Src/stm32f1xx_hal_spi.c **** #endif /* USE_SPI_CRC */
 237:Drivers/STM32F1xx_HAL_Driver/Src/stm32f1xx_hal_spi.c **** /** @defgroup SPI_Private_Constants SPI Private Constants
 238:Drivers/STM32F1xx_HAL_Driver/Src/stm32f1xx_hal_spi.c ****   * @{
 239:Drivers/STM32F1xx_HAL_Driver/Src/stm32f1xx_hal_spi.c ****   */
 240:Drivers/STM32F1xx_HAL_Driver/Src/stm32f1xx_hal_spi.c **** #define SPI_DEFAULT_TIMEOUT 100U
 241:Drivers/STM32F1xx_HAL_Driver/Src/stm32f1xx_hal_spi.c **** /**
 242:Drivers/STM32F1xx_HAL_Driver/Src/stm32f1xx_hal_spi.c ****   * @}
 243:Drivers/STM32F1xx_HAL_Driver/Src/stm32f1xx_hal_spi.c ****   */
 244:Drivers/STM32F1xx_HAL_Driver/Src/stm32f1xx_hal_spi.c **** 
 245:Drivers/STM32F1xx_HAL_Driver/Src/stm32f1xx_hal_spi.c **** /* Private macros ------------------------------------------------------------*/
 246:Drivers/STM32F1xx_HAL_Driver/Src/stm32f1xx_hal_spi.c **** /* Private variables ---------------------------------------------------------*/
 247:Drivers/STM32F1xx_HAL_Driver/Src/stm32f1xx_hal_spi.c **** /* Private function prototypes -----------------------------------------------*/
 248:Drivers/STM32F1xx_HAL_Driver/Src/stm32f1xx_hal_spi.c **** /** @defgroup SPI_Private_Functions SPI Private Functions
 249:Drivers/STM32F1xx_HAL_Driver/Src/stm32f1xx_hal_spi.c ****   * @{
 250:Drivers/STM32F1xx_HAL_Driver/Src/stm32f1xx_hal_spi.c ****   */
 251:Drivers/STM32F1xx_HAL_Driver/Src/stm32f1xx_hal_spi.c **** static void SPI_DMATransmitCplt(DMA_HandleTypeDef *hdma);
 252:Drivers/STM32F1xx_HAL_Driver/Src/stm32f1xx_hal_spi.c **** static void SPI_DMAReceiveCplt(DMA_HandleTypeDef *hdma);
 253:Drivers/STM32F1xx_HAL_Driver/Src/stm32f1xx_hal_spi.c **** static void SPI_DMATransmitReceiveCplt(DMA_HandleTypeDef *hdma);
 254:Drivers/STM32F1xx_HAL_Driver/Src/stm32f1xx_hal_spi.c **** static void SPI_DMAHalfTransmitCplt(DMA_HandleTypeDef *hdma);
 255:Drivers/STM32F1xx_HAL_Driver/Src/stm32f1xx_hal_spi.c **** static void SPI_DMAHalfReceiveCplt(DMA_HandleTypeDef *hdma);
 256:Drivers/STM32F1xx_HAL_Driver/Src/stm32f1xx_hal_spi.c **** static void SPI_DMAHalfTransmitReceiveCplt(DMA_HandleTypeDef *hdma);
 257:Drivers/STM32F1xx_HAL_Driver/Src/stm32f1xx_hal_spi.c **** static void SPI_DMAError(DMA_HandleTypeDef *hdma);
 258:Drivers/STM32F1xx_HAL_Driver/Src/stm32f1xx_hal_spi.c **** static void SPI_DMAAbortOnError(DMA_HandleTypeDef *hdma);
 259:Drivers/STM32F1xx_HAL_Driver/Src/stm32f1xx_hal_spi.c **** static void SPI_DMATxAbortCallback(DMA_HandleTypeDef *hdma);
 260:Drivers/STM32F1xx_HAL_Driver/Src/stm32f1xx_hal_spi.c **** static void SPI_DMARxAbortCallback(DMA_HandleTypeDef *hdma);
ARM GAS  C:\Users\Matvey\AppData\Local\Temp\ccf8E5QD.s 			page 6


 261:Drivers/STM32F1xx_HAL_Driver/Src/stm32f1xx_hal_spi.c **** static HAL_StatusTypeDef SPI_WaitFlagStateUntilTimeout(SPI_HandleTypeDef *hspi, uint32_t Flag, Flag
 262:Drivers/STM32F1xx_HAL_Driver/Src/stm32f1xx_hal_spi.c ****                                                        uint32_t Timeout, uint32_t Tickstart);
 263:Drivers/STM32F1xx_HAL_Driver/Src/stm32f1xx_hal_spi.c **** static void SPI_TxISR_8BIT(struct __SPI_HandleTypeDef *hspi);
 264:Drivers/STM32F1xx_HAL_Driver/Src/stm32f1xx_hal_spi.c **** static void SPI_TxISR_16BIT(struct __SPI_HandleTypeDef *hspi);
 265:Drivers/STM32F1xx_HAL_Driver/Src/stm32f1xx_hal_spi.c **** static void SPI_RxISR_8BIT(struct __SPI_HandleTypeDef *hspi);
 266:Drivers/STM32F1xx_HAL_Driver/Src/stm32f1xx_hal_spi.c **** static void SPI_RxISR_16BIT(struct __SPI_HandleTypeDef *hspi);
 267:Drivers/STM32F1xx_HAL_Driver/Src/stm32f1xx_hal_spi.c **** static void SPI_2linesRxISR_8BIT(struct __SPI_HandleTypeDef *hspi);
 268:Drivers/STM32F1xx_HAL_Driver/Src/stm32f1xx_hal_spi.c **** static void SPI_2linesTxISR_8BIT(struct __SPI_HandleTypeDef *hspi);
 269:Drivers/STM32F1xx_HAL_Driver/Src/stm32f1xx_hal_spi.c **** static void SPI_2linesTxISR_16BIT(struct __SPI_HandleTypeDef *hspi);
 270:Drivers/STM32F1xx_HAL_Driver/Src/stm32f1xx_hal_spi.c **** static void SPI_2linesRxISR_16BIT(struct __SPI_HandleTypeDef *hspi);
 271:Drivers/STM32F1xx_HAL_Driver/Src/stm32f1xx_hal_spi.c **** #if (USE_SPI_CRC != 0U)
 272:Drivers/STM32F1xx_HAL_Driver/Src/stm32f1xx_hal_spi.c **** static void SPI_RxISR_8BITCRC(struct __SPI_HandleTypeDef *hspi);
 273:Drivers/STM32F1xx_HAL_Driver/Src/stm32f1xx_hal_spi.c **** static void SPI_RxISR_16BITCRC(struct __SPI_HandleTypeDef *hspi);
 274:Drivers/STM32F1xx_HAL_Driver/Src/stm32f1xx_hal_spi.c **** static void SPI_2linesRxISR_8BITCRC(struct __SPI_HandleTypeDef *hspi);
 275:Drivers/STM32F1xx_HAL_Driver/Src/stm32f1xx_hal_spi.c **** static void SPI_2linesRxISR_16BITCRC(struct __SPI_HandleTypeDef *hspi);
 276:Drivers/STM32F1xx_HAL_Driver/Src/stm32f1xx_hal_spi.c **** #endif /* USE_SPI_CRC */
 277:Drivers/STM32F1xx_HAL_Driver/Src/stm32f1xx_hal_spi.c **** static void SPI_AbortRx_ISR(SPI_HandleTypeDef *hspi);
 278:Drivers/STM32F1xx_HAL_Driver/Src/stm32f1xx_hal_spi.c **** static void SPI_AbortTx_ISR(SPI_HandleTypeDef *hspi);
 279:Drivers/STM32F1xx_HAL_Driver/Src/stm32f1xx_hal_spi.c **** static void SPI_CloseRxTx_ISR(SPI_HandleTypeDef *hspi);
 280:Drivers/STM32F1xx_HAL_Driver/Src/stm32f1xx_hal_spi.c **** static void SPI_CloseRx_ISR(SPI_HandleTypeDef *hspi);
 281:Drivers/STM32F1xx_HAL_Driver/Src/stm32f1xx_hal_spi.c **** static void SPI_CloseTx_ISR(SPI_HandleTypeDef *hspi);
 282:Drivers/STM32F1xx_HAL_Driver/Src/stm32f1xx_hal_spi.c **** static HAL_StatusTypeDef SPI_EndRxTransaction(SPI_HandleTypeDef *hspi, uint32_t Timeout, uint32_t T
 283:Drivers/STM32F1xx_HAL_Driver/Src/stm32f1xx_hal_spi.c **** static HAL_StatusTypeDef SPI_EndRxTxTransaction(SPI_HandleTypeDef *hspi, uint32_t Timeout, uint32_t
 284:Drivers/STM32F1xx_HAL_Driver/Src/stm32f1xx_hal_spi.c **** /**
 285:Drivers/STM32F1xx_HAL_Driver/Src/stm32f1xx_hal_spi.c ****   * @}
 286:Drivers/STM32F1xx_HAL_Driver/Src/stm32f1xx_hal_spi.c ****   */
 287:Drivers/STM32F1xx_HAL_Driver/Src/stm32f1xx_hal_spi.c **** 
 288:Drivers/STM32F1xx_HAL_Driver/Src/stm32f1xx_hal_spi.c **** /* Exported functions --------------------------------------------------------*/
 289:Drivers/STM32F1xx_HAL_Driver/Src/stm32f1xx_hal_spi.c **** /** @defgroup SPI_Exported_Functions SPI Exported Functions
 290:Drivers/STM32F1xx_HAL_Driver/Src/stm32f1xx_hal_spi.c ****   * @{
 291:Drivers/STM32F1xx_HAL_Driver/Src/stm32f1xx_hal_spi.c ****   */
 292:Drivers/STM32F1xx_HAL_Driver/Src/stm32f1xx_hal_spi.c **** 
 293:Drivers/STM32F1xx_HAL_Driver/Src/stm32f1xx_hal_spi.c **** /** @defgroup SPI_Exported_Functions_Group1 Initialization and de-initialization functions
 294:Drivers/STM32F1xx_HAL_Driver/Src/stm32f1xx_hal_spi.c ****   *  @brief    Initialization and Configuration functions
 295:Drivers/STM32F1xx_HAL_Driver/Src/stm32f1xx_hal_spi.c ****   *
 296:Drivers/STM32F1xx_HAL_Driver/Src/stm32f1xx_hal_spi.c **** @verbatim
 297:Drivers/STM32F1xx_HAL_Driver/Src/stm32f1xx_hal_spi.c ****  ===============================================================================
 298:Drivers/STM32F1xx_HAL_Driver/Src/stm32f1xx_hal_spi.c ****               ##### Initialization and de-initialization functions #####
 299:Drivers/STM32F1xx_HAL_Driver/Src/stm32f1xx_hal_spi.c ****  ===============================================================================
 300:Drivers/STM32F1xx_HAL_Driver/Src/stm32f1xx_hal_spi.c ****     [..]  This subsection provides a set of functions allowing to initialize and
 301:Drivers/STM32F1xx_HAL_Driver/Src/stm32f1xx_hal_spi.c ****           de-initialize the SPIx peripheral:
 302:Drivers/STM32F1xx_HAL_Driver/Src/stm32f1xx_hal_spi.c **** 
 303:Drivers/STM32F1xx_HAL_Driver/Src/stm32f1xx_hal_spi.c ****       (+) User must implement HAL_SPI_MspInit() function in which he configures
 304:Drivers/STM32F1xx_HAL_Driver/Src/stm32f1xx_hal_spi.c ****           all related peripherals resources (CLOCK, GPIO, DMA, IT and NVIC ).
 305:Drivers/STM32F1xx_HAL_Driver/Src/stm32f1xx_hal_spi.c **** 
 306:Drivers/STM32F1xx_HAL_Driver/Src/stm32f1xx_hal_spi.c ****       (+) Call the function HAL_SPI_Init() to configure the selected device with
 307:Drivers/STM32F1xx_HAL_Driver/Src/stm32f1xx_hal_spi.c ****           the selected configuration:
 308:Drivers/STM32F1xx_HAL_Driver/Src/stm32f1xx_hal_spi.c ****         (++) Mode
 309:Drivers/STM32F1xx_HAL_Driver/Src/stm32f1xx_hal_spi.c ****         (++) Direction
 310:Drivers/STM32F1xx_HAL_Driver/Src/stm32f1xx_hal_spi.c ****         (++) Data Size
 311:Drivers/STM32F1xx_HAL_Driver/Src/stm32f1xx_hal_spi.c ****         (++) Clock Polarity and Phase
 312:Drivers/STM32F1xx_HAL_Driver/Src/stm32f1xx_hal_spi.c ****         (++) NSS Management
 313:Drivers/STM32F1xx_HAL_Driver/Src/stm32f1xx_hal_spi.c ****         (++) BaudRate Prescaler
 314:Drivers/STM32F1xx_HAL_Driver/Src/stm32f1xx_hal_spi.c ****         (++) FirstBit
 315:Drivers/STM32F1xx_HAL_Driver/Src/stm32f1xx_hal_spi.c ****         (++) TIMode
 316:Drivers/STM32F1xx_HAL_Driver/Src/stm32f1xx_hal_spi.c ****         (++) CRC Calculation
 317:Drivers/STM32F1xx_HAL_Driver/Src/stm32f1xx_hal_spi.c ****         (++) CRC Polynomial if CRC enabled
ARM GAS  C:\Users\Matvey\AppData\Local\Temp\ccf8E5QD.s 			page 7


 318:Drivers/STM32F1xx_HAL_Driver/Src/stm32f1xx_hal_spi.c **** 
 319:Drivers/STM32F1xx_HAL_Driver/Src/stm32f1xx_hal_spi.c ****       (+) Call the function HAL_SPI_DeInit() to restore the default configuration
 320:Drivers/STM32F1xx_HAL_Driver/Src/stm32f1xx_hal_spi.c ****           of the selected SPIx peripheral.
 321:Drivers/STM32F1xx_HAL_Driver/Src/stm32f1xx_hal_spi.c **** 
 322:Drivers/STM32F1xx_HAL_Driver/Src/stm32f1xx_hal_spi.c **** @endverbatim
 323:Drivers/STM32F1xx_HAL_Driver/Src/stm32f1xx_hal_spi.c ****   * @{
 324:Drivers/STM32F1xx_HAL_Driver/Src/stm32f1xx_hal_spi.c ****   */
 325:Drivers/STM32F1xx_HAL_Driver/Src/stm32f1xx_hal_spi.c **** 
 326:Drivers/STM32F1xx_HAL_Driver/Src/stm32f1xx_hal_spi.c **** /**
 327:Drivers/STM32F1xx_HAL_Driver/Src/stm32f1xx_hal_spi.c ****   * @brief  Initialize the SPI according to the specified parameters
 328:Drivers/STM32F1xx_HAL_Driver/Src/stm32f1xx_hal_spi.c ****   *         in the SPI_InitTypeDef and initialize the associated handle.
 329:Drivers/STM32F1xx_HAL_Driver/Src/stm32f1xx_hal_spi.c ****   * @param  hspi pointer to a SPI_HandleTypeDef structure that contains
 330:Drivers/STM32F1xx_HAL_Driver/Src/stm32f1xx_hal_spi.c ****   *               the configuration information for SPI module.
 331:Drivers/STM32F1xx_HAL_Driver/Src/stm32f1xx_hal_spi.c ****   * @retval HAL status
 332:Drivers/STM32F1xx_HAL_Driver/Src/stm32f1xx_hal_spi.c ****   */
 333:Drivers/STM32F1xx_HAL_Driver/Src/stm32f1xx_hal_spi.c **** HAL_StatusTypeDef HAL_SPI_Init(SPI_HandleTypeDef *hspi)
 334:Drivers/STM32F1xx_HAL_Driver/Src/stm32f1xx_hal_spi.c **** {
  27              		.loc 1 334 1
  28              		.cfi_startproc
  29              		@ args = 0, pretend = 0, frame = 8
  30              		@ frame_needed = 1, uses_anonymous_args = 0
  31 0000 80B5     		push	{r7, lr}
  32              	.LCFI0:
  33              		.cfi_def_cfa_offset 8
  34              		.cfi_offset 7, -8
  35              		.cfi_offset 14, -4
  36 0002 82B0     		sub	sp, sp, #8
  37              	.LCFI1:
  38              		.cfi_def_cfa_offset 16
  39 0004 00AF     		add	r7, sp, #0
  40              	.LCFI2:
  41              		.cfi_def_cfa_register 7
  42 0006 7860     		str	r0, [r7, #4]
 335:Drivers/STM32F1xx_HAL_Driver/Src/stm32f1xx_hal_spi.c ****   /* Check the SPI handle allocation */
 336:Drivers/STM32F1xx_HAL_Driver/Src/stm32f1xx_hal_spi.c ****   if (hspi == NULL)
  43              		.loc 1 336 6
  44 0008 7B68     		ldr	r3, [r7, #4]
  45 000a 002B     		cmp	r3, #0
  46 000c 01D1     		bne	.L2
 337:Drivers/STM32F1xx_HAL_Driver/Src/stm32f1xx_hal_spi.c ****   {
 338:Drivers/STM32F1xx_HAL_Driver/Src/stm32f1xx_hal_spi.c ****     return HAL_ERROR;
  47              		.loc 1 338 12
  48 000e 0123     		movs	r3, #1
  49 0010 76E0     		b	.L3
  50              	.L2:
 339:Drivers/STM32F1xx_HAL_Driver/Src/stm32f1xx_hal_spi.c ****   }
 340:Drivers/STM32F1xx_HAL_Driver/Src/stm32f1xx_hal_spi.c **** 
 341:Drivers/STM32F1xx_HAL_Driver/Src/stm32f1xx_hal_spi.c ****   /* Check the parameters */
 342:Drivers/STM32F1xx_HAL_Driver/Src/stm32f1xx_hal_spi.c ****   assert_param(IS_SPI_ALL_INSTANCE(hspi->Instance));
 343:Drivers/STM32F1xx_HAL_Driver/Src/stm32f1xx_hal_spi.c ****   assert_param(IS_SPI_MODE(hspi->Init.Mode));
 344:Drivers/STM32F1xx_HAL_Driver/Src/stm32f1xx_hal_spi.c ****   assert_param(IS_SPI_DIRECTION(hspi->Init.Direction));
 345:Drivers/STM32F1xx_HAL_Driver/Src/stm32f1xx_hal_spi.c ****   assert_param(IS_SPI_DATASIZE(hspi->Init.DataSize));
 346:Drivers/STM32F1xx_HAL_Driver/Src/stm32f1xx_hal_spi.c ****   assert_param(IS_SPI_NSS(hspi->Init.NSS));
 347:Drivers/STM32F1xx_HAL_Driver/Src/stm32f1xx_hal_spi.c ****   assert_param(IS_SPI_BAUDRATE_PRESCALER(hspi->Init.BaudRatePrescaler));
 348:Drivers/STM32F1xx_HAL_Driver/Src/stm32f1xx_hal_spi.c ****   assert_param(IS_SPI_FIRST_BIT(hspi->Init.FirstBit));
 349:Drivers/STM32F1xx_HAL_Driver/Src/stm32f1xx_hal_spi.c ****   /* TI mode is not supported on this device.
 350:Drivers/STM32F1xx_HAL_Driver/Src/stm32f1xx_hal_spi.c ****      TIMode parameter is mandatory equal to SPI_TIMODE_DISABLE */
ARM GAS  C:\Users\Matvey\AppData\Local\Temp\ccf8E5QD.s 			page 8


 351:Drivers/STM32F1xx_HAL_Driver/Src/stm32f1xx_hal_spi.c ****   assert_param(IS_SPI_TIMODE(hspi->Init.TIMode));
 352:Drivers/STM32F1xx_HAL_Driver/Src/stm32f1xx_hal_spi.c ****   if (hspi->Init.TIMode == SPI_TIMODE_DISABLE)
  51              		.loc 1 352 17
  52 0012 7B68     		ldr	r3, [r7, #4]
  53 0014 5B6A     		ldr	r3, [r3, #36]
  54              		.loc 1 352 6
  55 0016 002B     		cmp	r3, #0
  56 0018 08D1     		bne	.L4
 353:Drivers/STM32F1xx_HAL_Driver/Src/stm32f1xx_hal_spi.c ****   {
 354:Drivers/STM32F1xx_HAL_Driver/Src/stm32f1xx_hal_spi.c ****     assert_param(IS_SPI_CPOL(hspi->Init.CLKPolarity));
 355:Drivers/STM32F1xx_HAL_Driver/Src/stm32f1xx_hal_spi.c ****     assert_param(IS_SPI_CPHA(hspi->Init.CLKPhase));
 356:Drivers/STM32F1xx_HAL_Driver/Src/stm32f1xx_hal_spi.c **** 
 357:Drivers/STM32F1xx_HAL_Driver/Src/stm32f1xx_hal_spi.c ****     if (hspi->Init.Mode == SPI_MODE_MASTER)
  57              		.loc 1 357 19
  58 001a 7B68     		ldr	r3, [r7, #4]
  59 001c 5B68     		ldr	r3, [r3, #4]
  60              		.loc 1 357 8
  61 001e B3F5827F 		cmp	r3, #260
  62 0022 09D0     		beq	.L5
 358:Drivers/STM32F1xx_HAL_Driver/Src/stm32f1xx_hal_spi.c ****     {
 359:Drivers/STM32F1xx_HAL_Driver/Src/stm32f1xx_hal_spi.c ****       assert_param(IS_SPI_BAUDRATE_PRESCALER(hspi->Init.BaudRatePrescaler));
 360:Drivers/STM32F1xx_HAL_Driver/Src/stm32f1xx_hal_spi.c ****     }
 361:Drivers/STM32F1xx_HAL_Driver/Src/stm32f1xx_hal_spi.c ****     else
 362:Drivers/STM32F1xx_HAL_Driver/Src/stm32f1xx_hal_spi.c ****     {
 363:Drivers/STM32F1xx_HAL_Driver/Src/stm32f1xx_hal_spi.c ****       /* Baudrate prescaler not use in Motoraola Slave mode. force to default value */
 364:Drivers/STM32F1xx_HAL_Driver/Src/stm32f1xx_hal_spi.c ****       hspi->Init.BaudRatePrescaler = SPI_BAUDRATEPRESCALER_2;
  63              		.loc 1 364 36
  64 0024 7B68     		ldr	r3, [r7, #4]
  65 0026 0022     		movs	r2, #0
  66 0028 DA61     		str	r2, [r3, #28]
  67 002a 05E0     		b	.L5
  68              	.L4:
 365:Drivers/STM32F1xx_HAL_Driver/Src/stm32f1xx_hal_spi.c ****     }
 366:Drivers/STM32F1xx_HAL_Driver/Src/stm32f1xx_hal_spi.c ****   }
 367:Drivers/STM32F1xx_HAL_Driver/Src/stm32f1xx_hal_spi.c ****   else
 368:Drivers/STM32F1xx_HAL_Driver/Src/stm32f1xx_hal_spi.c ****   {
 369:Drivers/STM32F1xx_HAL_Driver/Src/stm32f1xx_hal_spi.c ****     assert_param(IS_SPI_BAUDRATE_PRESCALER(hspi->Init.BaudRatePrescaler));
 370:Drivers/STM32F1xx_HAL_Driver/Src/stm32f1xx_hal_spi.c **** 
 371:Drivers/STM32F1xx_HAL_Driver/Src/stm32f1xx_hal_spi.c ****     /* Force polarity and phase to TI protocaol requirements */
 372:Drivers/STM32F1xx_HAL_Driver/Src/stm32f1xx_hal_spi.c ****     hspi->Init.CLKPolarity = SPI_POLARITY_LOW;
  69              		.loc 1 372 28
  70 002c 7B68     		ldr	r3, [r7, #4]
  71 002e 0022     		movs	r2, #0
  72 0030 1A61     		str	r2, [r3, #16]
 373:Drivers/STM32F1xx_HAL_Driver/Src/stm32f1xx_hal_spi.c ****     hspi->Init.CLKPhase    = SPI_PHASE_1EDGE;
  73              		.loc 1 373 28
  74 0032 7B68     		ldr	r3, [r7, #4]
  75 0034 0022     		movs	r2, #0
  76 0036 5A61     		str	r2, [r3, #20]
  77              	.L5:
 374:Drivers/STM32F1xx_HAL_Driver/Src/stm32f1xx_hal_spi.c ****   }
 375:Drivers/STM32F1xx_HAL_Driver/Src/stm32f1xx_hal_spi.c **** #if (USE_SPI_CRC != 0U)
 376:Drivers/STM32F1xx_HAL_Driver/Src/stm32f1xx_hal_spi.c ****   assert_param(IS_SPI_CRC_CALCULATION(hspi->Init.CRCCalculation));
 377:Drivers/STM32F1xx_HAL_Driver/Src/stm32f1xx_hal_spi.c ****   if (hspi->Init.CRCCalculation == SPI_CRCCALCULATION_ENABLE)
 378:Drivers/STM32F1xx_HAL_Driver/Src/stm32f1xx_hal_spi.c ****   {
 379:Drivers/STM32F1xx_HAL_Driver/Src/stm32f1xx_hal_spi.c ****     assert_param(IS_SPI_CRC_POLYNOMIAL(hspi->Init.CRCPolynomial));
 380:Drivers/STM32F1xx_HAL_Driver/Src/stm32f1xx_hal_spi.c ****   }
ARM GAS  C:\Users\Matvey\AppData\Local\Temp\ccf8E5QD.s 			page 9


 381:Drivers/STM32F1xx_HAL_Driver/Src/stm32f1xx_hal_spi.c **** #else
 382:Drivers/STM32F1xx_HAL_Driver/Src/stm32f1xx_hal_spi.c ****   hspi->Init.CRCCalculation = SPI_CRCCALCULATION_DISABLE;
  78              		.loc 1 382 29
  79 0038 7B68     		ldr	r3, [r7, #4]
  80 003a 0022     		movs	r2, #0
  81 003c 9A62     		str	r2, [r3, #40]
 383:Drivers/STM32F1xx_HAL_Driver/Src/stm32f1xx_hal_spi.c **** #endif /* USE_SPI_CRC */
 384:Drivers/STM32F1xx_HAL_Driver/Src/stm32f1xx_hal_spi.c **** 
 385:Drivers/STM32F1xx_HAL_Driver/Src/stm32f1xx_hal_spi.c ****   if (hspi->State == HAL_SPI_STATE_RESET)
  82              		.loc 1 385 11
  83 003e 7B68     		ldr	r3, [r7, #4]
  84 0040 93F85130 		ldrb	r3, [r3, #81]
  85 0044 DBB2     		uxtb	r3, r3
  86              		.loc 1 385 6
  87 0046 002B     		cmp	r3, #0
  88 0048 06D1     		bne	.L6
 386:Drivers/STM32F1xx_HAL_Driver/Src/stm32f1xx_hal_spi.c ****   {
 387:Drivers/STM32F1xx_HAL_Driver/Src/stm32f1xx_hal_spi.c ****     /* Allocate lock resource and initialize it */
 388:Drivers/STM32F1xx_HAL_Driver/Src/stm32f1xx_hal_spi.c ****     hspi->Lock = HAL_UNLOCKED;
  89              		.loc 1 388 16
  90 004a 7B68     		ldr	r3, [r7, #4]
  91 004c 0022     		movs	r2, #0
  92 004e 83F85020 		strb	r2, [r3, #80]
 389:Drivers/STM32F1xx_HAL_Driver/Src/stm32f1xx_hal_spi.c **** 
 390:Drivers/STM32F1xx_HAL_Driver/Src/stm32f1xx_hal_spi.c **** #if (USE_HAL_SPI_REGISTER_CALLBACKS == 1U)
 391:Drivers/STM32F1xx_HAL_Driver/Src/stm32f1xx_hal_spi.c ****     /* Init the SPI Callback settings */
 392:Drivers/STM32F1xx_HAL_Driver/Src/stm32f1xx_hal_spi.c ****     hspi->TxCpltCallback       = HAL_SPI_TxCpltCallback;       /* Legacy weak TxCpltCallback       
 393:Drivers/STM32F1xx_HAL_Driver/Src/stm32f1xx_hal_spi.c ****     hspi->RxCpltCallback       = HAL_SPI_RxCpltCallback;       /* Legacy weak RxCpltCallback       
 394:Drivers/STM32F1xx_HAL_Driver/Src/stm32f1xx_hal_spi.c ****     hspi->TxRxCpltCallback     = HAL_SPI_TxRxCpltCallback;     /* Legacy weak TxRxCpltCallback     
 395:Drivers/STM32F1xx_HAL_Driver/Src/stm32f1xx_hal_spi.c ****     hspi->TxHalfCpltCallback   = HAL_SPI_TxHalfCpltCallback;   /* Legacy weak TxHalfCpltCallback   
 396:Drivers/STM32F1xx_HAL_Driver/Src/stm32f1xx_hal_spi.c ****     hspi->RxHalfCpltCallback   = HAL_SPI_RxHalfCpltCallback;   /* Legacy weak RxHalfCpltCallback   
 397:Drivers/STM32F1xx_HAL_Driver/Src/stm32f1xx_hal_spi.c ****     hspi->TxRxHalfCpltCallback = HAL_SPI_TxRxHalfCpltCallback; /* Legacy weak TxRxHalfCpltCallback 
 398:Drivers/STM32F1xx_HAL_Driver/Src/stm32f1xx_hal_spi.c ****     hspi->ErrorCallback        = HAL_SPI_ErrorCallback;        /* Legacy weak ErrorCallback        
 399:Drivers/STM32F1xx_HAL_Driver/Src/stm32f1xx_hal_spi.c ****     hspi->AbortCpltCallback    = HAL_SPI_AbortCpltCallback;    /* Legacy weak AbortCpltCallback    
 400:Drivers/STM32F1xx_HAL_Driver/Src/stm32f1xx_hal_spi.c **** 
 401:Drivers/STM32F1xx_HAL_Driver/Src/stm32f1xx_hal_spi.c ****     if (hspi->MspInitCallback == NULL)
 402:Drivers/STM32F1xx_HAL_Driver/Src/stm32f1xx_hal_spi.c ****     {
 403:Drivers/STM32F1xx_HAL_Driver/Src/stm32f1xx_hal_spi.c ****       hspi->MspInitCallback = HAL_SPI_MspInit; /* Legacy weak MspInit  */
 404:Drivers/STM32F1xx_HAL_Driver/Src/stm32f1xx_hal_spi.c ****     }
 405:Drivers/STM32F1xx_HAL_Driver/Src/stm32f1xx_hal_spi.c **** 
 406:Drivers/STM32F1xx_HAL_Driver/Src/stm32f1xx_hal_spi.c ****     /* Init the low level hardware : GPIO, CLOCK, NVIC... */
 407:Drivers/STM32F1xx_HAL_Driver/Src/stm32f1xx_hal_spi.c ****     hspi->MspInitCallback(hspi);
 408:Drivers/STM32F1xx_HAL_Driver/Src/stm32f1xx_hal_spi.c **** #else
 409:Drivers/STM32F1xx_HAL_Driver/Src/stm32f1xx_hal_spi.c ****     /* Init the low level hardware : GPIO, CLOCK, NVIC... */
 410:Drivers/STM32F1xx_HAL_Driver/Src/stm32f1xx_hal_spi.c ****     HAL_SPI_MspInit(hspi);
  93              		.loc 1 410 5
  94 0052 7868     		ldr	r0, [r7, #4]
  95 0054 FFF7FEFF 		bl	HAL_SPI_MspInit
  96              	.L6:
 411:Drivers/STM32F1xx_HAL_Driver/Src/stm32f1xx_hal_spi.c **** #endif /* USE_HAL_SPI_REGISTER_CALLBACKS */
 412:Drivers/STM32F1xx_HAL_Driver/Src/stm32f1xx_hal_spi.c ****   }
 413:Drivers/STM32F1xx_HAL_Driver/Src/stm32f1xx_hal_spi.c **** 
 414:Drivers/STM32F1xx_HAL_Driver/Src/stm32f1xx_hal_spi.c ****   hspi->State = HAL_SPI_STATE_BUSY;
  97              		.loc 1 414 15
  98 0058 7B68     		ldr	r3, [r7, #4]
  99 005a 0222     		movs	r2, #2
 100 005c 83F85120 		strb	r2, [r3, #81]
ARM GAS  C:\Users\Matvey\AppData\Local\Temp\ccf8E5QD.s 			page 10


 415:Drivers/STM32F1xx_HAL_Driver/Src/stm32f1xx_hal_spi.c **** 
 416:Drivers/STM32F1xx_HAL_Driver/Src/stm32f1xx_hal_spi.c ****   /* Disable the selected SPI peripheral */
 417:Drivers/STM32F1xx_HAL_Driver/Src/stm32f1xx_hal_spi.c ****   __HAL_SPI_DISABLE(hspi);
 101              		.loc 1 417 3
 102 0060 7B68     		ldr	r3, [r7, #4]
 103 0062 1B68     		ldr	r3, [r3]
 104 0064 1A68     		ldr	r2, [r3]
 105 0066 7B68     		ldr	r3, [r7, #4]
 106 0068 1B68     		ldr	r3, [r3]
 107 006a 22F04002 		bic	r2, r2, #64
 108 006e 1A60     		str	r2, [r3]
 418:Drivers/STM32F1xx_HAL_Driver/Src/stm32f1xx_hal_spi.c **** 
 419:Drivers/STM32F1xx_HAL_Driver/Src/stm32f1xx_hal_spi.c ****   /*----------------------- SPIx CR1 & CR2 Configuration ---------------------*/
 420:Drivers/STM32F1xx_HAL_Driver/Src/stm32f1xx_hal_spi.c ****   /* Configure : SPI Mode, Communication Mode, Data size, Clock polarity and phase, NSS management,
 421:Drivers/STM32F1xx_HAL_Driver/Src/stm32f1xx_hal_spi.c ****   Communication speed, First bit and CRC calculation state */
 422:Drivers/STM32F1xx_HAL_Driver/Src/stm32f1xx_hal_spi.c ****   WRITE_REG(hspi->Instance->CR1, ((hspi->Init.Mode & (SPI_CR1_MSTR | SPI_CR1_SSI)) |
 109              		.loc 1 422 3
 110 0070 7B68     		ldr	r3, [r7, #4]
 111 0072 5B68     		ldr	r3, [r3, #4]
 112 0074 03F48272 		and	r2, r3, #260
 113 0078 7B68     		ldr	r3, [r7, #4]
 114 007a 9B68     		ldr	r3, [r3, #8]
 115 007c 03F40443 		and	r3, r3, #33792
 116 0080 1A43     		orrs	r2, r2, r3
 117 0082 7B68     		ldr	r3, [r7, #4]
 118 0084 DB68     		ldr	r3, [r3, #12]
 119 0086 03F40063 		and	r3, r3, #2048
 120 008a 1A43     		orrs	r2, r2, r3
 121 008c 7B68     		ldr	r3, [r7, #4]
 122 008e 1B69     		ldr	r3, [r3, #16]
 123 0090 03F00203 		and	r3, r3, #2
 124 0094 1A43     		orrs	r2, r2, r3
 125 0096 7B68     		ldr	r3, [r7, #4]
 126 0098 5B69     		ldr	r3, [r3, #20]
 127 009a 03F00103 		and	r3, r3, #1
 128 009e 1A43     		orrs	r2, r2, r3
 129 00a0 7B68     		ldr	r3, [r7, #4]
 130 00a2 9B69     		ldr	r3, [r3, #24]
 131 00a4 03F40073 		and	r3, r3, #512
 132 00a8 1A43     		orrs	r2, r2, r3
 133 00aa 7B68     		ldr	r3, [r7, #4]
 134 00ac DB69     		ldr	r3, [r3, #28]
 135 00ae 03F03803 		and	r3, r3, #56
 136 00b2 1A43     		orrs	r2, r2, r3
 137 00b4 7B68     		ldr	r3, [r7, #4]
 138 00b6 1B6A     		ldr	r3, [r3, #32]
 139 00b8 03F08003 		and	r3, r3, #128
 140 00bc 42EA0301 		orr	r1, r2, r3
 141 00c0 7B68     		ldr	r3, [r7, #4]
 142 00c2 9B6A     		ldr	r3, [r3, #40]
 143 00c4 03F40052 		and	r2, r3, #8192
 144 00c8 7B68     		ldr	r3, [r7, #4]
 145 00ca 1B68     		ldr	r3, [r3]
 146 00cc 0A43     		orrs	r2, r2, r1
 147 00ce 1A60     		str	r2, [r3]
 423:Drivers/STM32F1xx_HAL_Driver/Src/stm32f1xx_hal_spi.c ****                                   (hspi->Init.Direction & (SPI_CR1_RXONLY | SPI_CR1_BIDIMODE)) |
 424:Drivers/STM32F1xx_HAL_Driver/Src/stm32f1xx_hal_spi.c ****                                   (hspi->Init.DataSize & SPI_CR1_DFF) |
ARM GAS  C:\Users\Matvey\AppData\Local\Temp\ccf8E5QD.s 			page 11


 425:Drivers/STM32F1xx_HAL_Driver/Src/stm32f1xx_hal_spi.c ****                                   (hspi->Init.CLKPolarity & SPI_CR1_CPOL) |
 426:Drivers/STM32F1xx_HAL_Driver/Src/stm32f1xx_hal_spi.c ****                                   (hspi->Init.CLKPhase & SPI_CR1_CPHA) |
 427:Drivers/STM32F1xx_HAL_Driver/Src/stm32f1xx_hal_spi.c ****                                   (hspi->Init.NSS & SPI_CR1_SSM) |
 428:Drivers/STM32F1xx_HAL_Driver/Src/stm32f1xx_hal_spi.c ****                                   (hspi->Init.BaudRatePrescaler & SPI_CR1_BR_Msk) |
 429:Drivers/STM32F1xx_HAL_Driver/Src/stm32f1xx_hal_spi.c ****                                   (hspi->Init.FirstBit  & SPI_CR1_LSBFIRST) |
 430:Drivers/STM32F1xx_HAL_Driver/Src/stm32f1xx_hal_spi.c ****                                   (hspi->Init.CRCCalculation & SPI_CR1_CRCEN)));
 431:Drivers/STM32F1xx_HAL_Driver/Src/stm32f1xx_hal_spi.c **** 
 432:Drivers/STM32F1xx_HAL_Driver/Src/stm32f1xx_hal_spi.c ****   /* Configure : NSS management */
 433:Drivers/STM32F1xx_HAL_Driver/Src/stm32f1xx_hal_spi.c ****   WRITE_REG(hspi->Instance->CR2, ((hspi->Init.NSS >> 16U) & SPI_CR2_SSOE));
 148              		.loc 1 433 3
 149 00d0 7B68     		ldr	r3, [r7, #4]
 150 00d2 9B69     		ldr	r3, [r3, #24]
 151 00d4 1A0C     		lsrs	r2, r3, #16
 152 00d6 7B68     		ldr	r3, [r7, #4]
 153 00d8 1B68     		ldr	r3, [r3]
 154 00da 02F00402 		and	r2, r2, #4
 155 00de 5A60     		str	r2, [r3, #4]
 434:Drivers/STM32F1xx_HAL_Driver/Src/stm32f1xx_hal_spi.c **** 
 435:Drivers/STM32F1xx_HAL_Driver/Src/stm32f1xx_hal_spi.c **** #if (USE_SPI_CRC != 0U)
 436:Drivers/STM32F1xx_HAL_Driver/Src/stm32f1xx_hal_spi.c ****   /*---------------------------- SPIx CRCPOLY Configuration ------------------*/
 437:Drivers/STM32F1xx_HAL_Driver/Src/stm32f1xx_hal_spi.c ****   /* Configure : CRC Polynomial */
 438:Drivers/STM32F1xx_HAL_Driver/Src/stm32f1xx_hal_spi.c ****   if (hspi->Init.CRCCalculation == SPI_CRCCALCULATION_ENABLE)
 439:Drivers/STM32F1xx_HAL_Driver/Src/stm32f1xx_hal_spi.c ****   {
 440:Drivers/STM32F1xx_HAL_Driver/Src/stm32f1xx_hal_spi.c ****     WRITE_REG(hspi->Instance->CRCPR, (hspi->Init.CRCPolynomial & SPI_CRCPR_CRCPOLY_Msk));
 441:Drivers/STM32F1xx_HAL_Driver/Src/stm32f1xx_hal_spi.c ****   }
 442:Drivers/STM32F1xx_HAL_Driver/Src/stm32f1xx_hal_spi.c **** #endif /* USE_SPI_CRC */
 443:Drivers/STM32F1xx_HAL_Driver/Src/stm32f1xx_hal_spi.c **** 
 444:Drivers/STM32F1xx_HAL_Driver/Src/stm32f1xx_hal_spi.c **** #if defined(SPI_I2SCFGR_I2SMOD)
 445:Drivers/STM32F1xx_HAL_Driver/Src/stm32f1xx_hal_spi.c ****   /* Activate the SPI mode (Make sure that I2SMOD bit in I2SCFGR register is reset) */
 446:Drivers/STM32F1xx_HAL_Driver/Src/stm32f1xx_hal_spi.c ****   CLEAR_BIT(hspi->Instance->I2SCFGR, SPI_I2SCFGR_I2SMOD);
 156              		.loc 1 446 3
 157 00e0 7B68     		ldr	r3, [r7, #4]
 158 00e2 1B68     		ldr	r3, [r3]
 159 00e4 DA69     		ldr	r2, [r3, #28]
 160 00e6 7B68     		ldr	r3, [r7, #4]
 161 00e8 1B68     		ldr	r3, [r3]
 162 00ea 22F40062 		bic	r2, r2, #2048
 163 00ee DA61     		str	r2, [r3, #28]
 447:Drivers/STM32F1xx_HAL_Driver/Src/stm32f1xx_hal_spi.c **** #endif /* SPI_I2SCFGR_I2SMOD */
 448:Drivers/STM32F1xx_HAL_Driver/Src/stm32f1xx_hal_spi.c **** 
 449:Drivers/STM32F1xx_HAL_Driver/Src/stm32f1xx_hal_spi.c ****   hspi->ErrorCode = HAL_SPI_ERROR_NONE;
 164              		.loc 1 449 19
 165 00f0 7B68     		ldr	r3, [r7, #4]
 166 00f2 0022     		movs	r2, #0
 167 00f4 5A65     		str	r2, [r3, #84]
 450:Drivers/STM32F1xx_HAL_Driver/Src/stm32f1xx_hal_spi.c ****   hspi->State     = HAL_SPI_STATE_READY;
 168              		.loc 1 450 19
 169 00f6 7B68     		ldr	r3, [r7, #4]
 170 00f8 0122     		movs	r2, #1
 171 00fa 83F85120 		strb	r2, [r3, #81]
 451:Drivers/STM32F1xx_HAL_Driver/Src/stm32f1xx_hal_spi.c **** 
 452:Drivers/STM32F1xx_HAL_Driver/Src/stm32f1xx_hal_spi.c ****   return HAL_OK;
 172              		.loc 1 452 10
 173 00fe 0023     		movs	r3, #0
 174              	.L3:
 453:Drivers/STM32F1xx_HAL_Driver/Src/stm32f1xx_hal_spi.c **** }
 175              		.loc 1 453 1
ARM GAS  C:\Users\Matvey\AppData\Local\Temp\ccf8E5QD.s 			page 12


 176 0100 1846     		mov	r0, r3
 177 0102 0837     		adds	r7, r7, #8
 178              	.LCFI3:
 179              		.cfi_def_cfa_offset 8
 180 0104 BD46     		mov	sp, r7
 181              	.LCFI4:
 182              		.cfi_def_cfa_register 13
 183              		@ sp needed
 184 0106 80BD     		pop	{r7, pc}
 185              		.cfi_endproc
 186              	.LFE65:
 188              		.section	.text.HAL_SPI_DeInit,"ax",%progbits
 189              		.align	1
 190              		.global	HAL_SPI_DeInit
 191              		.syntax unified
 192              		.thumb
 193              		.thumb_func
 195              	HAL_SPI_DeInit:
 196              	.LFB66:
 454:Drivers/STM32F1xx_HAL_Driver/Src/stm32f1xx_hal_spi.c **** 
 455:Drivers/STM32F1xx_HAL_Driver/Src/stm32f1xx_hal_spi.c **** /**
 456:Drivers/STM32F1xx_HAL_Driver/Src/stm32f1xx_hal_spi.c ****   * @brief  De-Initialize the SPI peripheral.
 457:Drivers/STM32F1xx_HAL_Driver/Src/stm32f1xx_hal_spi.c ****   * @param  hspi pointer to a SPI_HandleTypeDef structure that contains
 458:Drivers/STM32F1xx_HAL_Driver/Src/stm32f1xx_hal_spi.c ****   *               the configuration information for SPI module.
 459:Drivers/STM32F1xx_HAL_Driver/Src/stm32f1xx_hal_spi.c ****   * @retval HAL status
 460:Drivers/STM32F1xx_HAL_Driver/Src/stm32f1xx_hal_spi.c ****   */
 461:Drivers/STM32F1xx_HAL_Driver/Src/stm32f1xx_hal_spi.c **** HAL_StatusTypeDef HAL_SPI_DeInit(SPI_HandleTypeDef *hspi)
 462:Drivers/STM32F1xx_HAL_Driver/Src/stm32f1xx_hal_spi.c **** {
 197              		.loc 1 462 1
 198              		.cfi_startproc
 199              		@ args = 0, pretend = 0, frame = 8
 200              		@ frame_needed = 1, uses_anonymous_args = 0
 201 0000 80B5     		push	{r7, lr}
 202              	.LCFI5:
 203              		.cfi_def_cfa_offset 8
 204              		.cfi_offset 7, -8
 205              		.cfi_offset 14, -4
 206 0002 82B0     		sub	sp, sp, #8
 207              	.LCFI6:
 208              		.cfi_def_cfa_offset 16
 209 0004 00AF     		add	r7, sp, #0
 210              	.LCFI7:
 211              		.cfi_def_cfa_register 7
 212 0006 7860     		str	r0, [r7, #4]
 463:Drivers/STM32F1xx_HAL_Driver/Src/stm32f1xx_hal_spi.c ****   /* Check the SPI handle allocation */
 464:Drivers/STM32F1xx_HAL_Driver/Src/stm32f1xx_hal_spi.c ****   if (hspi == NULL)
 213              		.loc 1 464 6
 214 0008 7B68     		ldr	r3, [r7, #4]
 215 000a 002B     		cmp	r3, #0
 216 000c 01D1     		bne	.L8
 465:Drivers/STM32F1xx_HAL_Driver/Src/stm32f1xx_hal_spi.c ****   {
 466:Drivers/STM32F1xx_HAL_Driver/Src/stm32f1xx_hal_spi.c ****     return HAL_ERROR;
 217              		.loc 1 466 12
 218 000e 0123     		movs	r3, #1
 219 0010 1AE0     		b	.L9
 220              	.L8:
 467:Drivers/STM32F1xx_HAL_Driver/Src/stm32f1xx_hal_spi.c ****   }
ARM GAS  C:\Users\Matvey\AppData\Local\Temp\ccf8E5QD.s 			page 13


 468:Drivers/STM32F1xx_HAL_Driver/Src/stm32f1xx_hal_spi.c **** 
 469:Drivers/STM32F1xx_HAL_Driver/Src/stm32f1xx_hal_spi.c ****   /* Check SPI Instance parameter */
 470:Drivers/STM32F1xx_HAL_Driver/Src/stm32f1xx_hal_spi.c ****   assert_param(IS_SPI_ALL_INSTANCE(hspi->Instance));
 471:Drivers/STM32F1xx_HAL_Driver/Src/stm32f1xx_hal_spi.c **** 
 472:Drivers/STM32F1xx_HAL_Driver/Src/stm32f1xx_hal_spi.c ****   hspi->State = HAL_SPI_STATE_BUSY;
 221              		.loc 1 472 15
 222 0012 7B68     		ldr	r3, [r7, #4]
 223 0014 0222     		movs	r2, #2
 224 0016 83F85120 		strb	r2, [r3, #81]
 473:Drivers/STM32F1xx_HAL_Driver/Src/stm32f1xx_hal_spi.c **** 
 474:Drivers/STM32F1xx_HAL_Driver/Src/stm32f1xx_hal_spi.c ****   /* Disable the SPI Peripheral Clock */
 475:Drivers/STM32F1xx_HAL_Driver/Src/stm32f1xx_hal_spi.c ****   __HAL_SPI_DISABLE(hspi);
 225              		.loc 1 475 3
 226 001a 7B68     		ldr	r3, [r7, #4]
 227 001c 1B68     		ldr	r3, [r3]
 228 001e 1A68     		ldr	r2, [r3]
 229 0020 7B68     		ldr	r3, [r7, #4]
 230 0022 1B68     		ldr	r3, [r3]
 231 0024 22F04002 		bic	r2, r2, #64
 232 0028 1A60     		str	r2, [r3]
 476:Drivers/STM32F1xx_HAL_Driver/Src/stm32f1xx_hal_spi.c **** 
 477:Drivers/STM32F1xx_HAL_Driver/Src/stm32f1xx_hal_spi.c **** #if (USE_HAL_SPI_REGISTER_CALLBACKS == 1U)
 478:Drivers/STM32F1xx_HAL_Driver/Src/stm32f1xx_hal_spi.c ****   if (hspi->MspDeInitCallback == NULL)
 479:Drivers/STM32F1xx_HAL_Driver/Src/stm32f1xx_hal_spi.c ****   {
 480:Drivers/STM32F1xx_HAL_Driver/Src/stm32f1xx_hal_spi.c ****     hspi->MspDeInitCallback = HAL_SPI_MspDeInit; /* Legacy weak MspDeInit  */
 481:Drivers/STM32F1xx_HAL_Driver/Src/stm32f1xx_hal_spi.c ****   }
 482:Drivers/STM32F1xx_HAL_Driver/Src/stm32f1xx_hal_spi.c **** 
 483:Drivers/STM32F1xx_HAL_Driver/Src/stm32f1xx_hal_spi.c ****   /* DeInit the low level hardware: GPIO, CLOCK, NVIC... */
 484:Drivers/STM32F1xx_HAL_Driver/Src/stm32f1xx_hal_spi.c ****   hspi->MspDeInitCallback(hspi);
 485:Drivers/STM32F1xx_HAL_Driver/Src/stm32f1xx_hal_spi.c **** #else
 486:Drivers/STM32F1xx_HAL_Driver/Src/stm32f1xx_hal_spi.c ****   /* DeInit the low level hardware: GPIO, CLOCK, NVIC... */
 487:Drivers/STM32F1xx_HAL_Driver/Src/stm32f1xx_hal_spi.c ****   HAL_SPI_MspDeInit(hspi);
 233              		.loc 1 487 3
 234 002a 7868     		ldr	r0, [r7, #4]
 235 002c FFF7FEFF 		bl	HAL_SPI_MspDeInit
 488:Drivers/STM32F1xx_HAL_Driver/Src/stm32f1xx_hal_spi.c **** #endif /* USE_HAL_SPI_REGISTER_CALLBACKS */
 489:Drivers/STM32F1xx_HAL_Driver/Src/stm32f1xx_hal_spi.c **** 
 490:Drivers/STM32F1xx_HAL_Driver/Src/stm32f1xx_hal_spi.c ****   hspi->ErrorCode = HAL_SPI_ERROR_NONE;
 236              		.loc 1 490 19
 237 0030 7B68     		ldr	r3, [r7, #4]
 238 0032 0022     		movs	r2, #0
 239 0034 5A65     		str	r2, [r3, #84]
 491:Drivers/STM32F1xx_HAL_Driver/Src/stm32f1xx_hal_spi.c ****   hspi->State = HAL_SPI_STATE_RESET;
 240              		.loc 1 491 15
 241 0036 7B68     		ldr	r3, [r7, #4]
 242 0038 0022     		movs	r2, #0
 243 003a 83F85120 		strb	r2, [r3, #81]
 492:Drivers/STM32F1xx_HAL_Driver/Src/stm32f1xx_hal_spi.c **** 
 493:Drivers/STM32F1xx_HAL_Driver/Src/stm32f1xx_hal_spi.c ****   /* Release Lock */
 494:Drivers/STM32F1xx_HAL_Driver/Src/stm32f1xx_hal_spi.c ****   __HAL_UNLOCK(hspi);
 244              		.loc 1 494 3
 245 003e 7B68     		ldr	r3, [r7, #4]
 246 0040 0022     		movs	r2, #0
 247 0042 83F85020 		strb	r2, [r3, #80]
 495:Drivers/STM32F1xx_HAL_Driver/Src/stm32f1xx_hal_spi.c **** 
 496:Drivers/STM32F1xx_HAL_Driver/Src/stm32f1xx_hal_spi.c ****   return HAL_OK;
 248              		.loc 1 496 10
ARM GAS  C:\Users\Matvey\AppData\Local\Temp\ccf8E5QD.s 			page 14


 249 0046 0023     		movs	r3, #0
 250              	.L9:
 497:Drivers/STM32F1xx_HAL_Driver/Src/stm32f1xx_hal_spi.c **** }
 251              		.loc 1 497 1
 252 0048 1846     		mov	r0, r3
 253 004a 0837     		adds	r7, r7, #8
 254              	.LCFI8:
 255              		.cfi_def_cfa_offset 8
 256 004c BD46     		mov	sp, r7
 257              	.LCFI9:
 258              		.cfi_def_cfa_register 13
 259              		@ sp needed
 260 004e 80BD     		pop	{r7, pc}
 261              		.cfi_endproc
 262              	.LFE66:
 264              		.section	.text.HAL_SPI_MspInit,"ax",%progbits
 265              		.align	1
 266              		.weak	HAL_SPI_MspInit
 267              		.syntax unified
 268              		.thumb
 269              		.thumb_func
 271              	HAL_SPI_MspInit:
 272              	.LFB67:
 498:Drivers/STM32F1xx_HAL_Driver/Src/stm32f1xx_hal_spi.c **** 
 499:Drivers/STM32F1xx_HAL_Driver/Src/stm32f1xx_hal_spi.c **** /**
 500:Drivers/STM32F1xx_HAL_Driver/Src/stm32f1xx_hal_spi.c ****   * @brief  Initialize the SPI MSP.
 501:Drivers/STM32F1xx_HAL_Driver/Src/stm32f1xx_hal_spi.c ****   * @param  hspi pointer to a SPI_HandleTypeDef structure that contains
 502:Drivers/STM32F1xx_HAL_Driver/Src/stm32f1xx_hal_spi.c ****   *               the configuration information for SPI module.
 503:Drivers/STM32F1xx_HAL_Driver/Src/stm32f1xx_hal_spi.c ****   * @retval None
 504:Drivers/STM32F1xx_HAL_Driver/Src/stm32f1xx_hal_spi.c ****   */
 505:Drivers/STM32F1xx_HAL_Driver/Src/stm32f1xx_hal_spi.c **** __weak void HAL_SPI_MspInit(SPI_HandleTypeDef *hspi)
 506:Drivers/STM32F1xx_HAL_Driver/Src/stm32f1xx_hal_spi.c **** {
 273              		.loc 1 506 1
 274              		.cfi_startproc
 275              		@ args = 0, pretend = 0, frame = 8
 276              		@ frame_needed = 1, uses_anonymous_args = 0
 277              		@ link register save eliminated.
 278 0000 80B4     		push	{r7}
 279              	.LCFI10:
 280              		.cfi_def_cfa_offset 4
 281              		.cfi_offset 7, -4
 282 0002 83B0     		sub	sp, sp, #12
 283              	.LCFI11:
 284              		.cfi_def_cfa_offset 16
 285 0004 00AF     		add	r7, sp, #0
 286              	.LCFI12:
 287              		.cfi_def_cfa_register 7
 288 0006 7860     		str	r0, [r7, #4]
 507:Drivers/STM32F1xx_HAL_Driver/Src/stm32f1xx_hal_spi.c ****   /* Prevent unused argument(s) compilation warning */
 508:Drivers/STM32F1xx_HAL_Driver/Src/stm32f1xx_hal_spi.c ****   UNUSED(hspi);
 509:Drivers/STM32F1xx_HAL_Driver/Src/stm32f1xx_hal_spi.c **** 
 510:Drivers/STM32F1xx_HAL_Driver/Src/stm32f1xx_hal_spi.c ****   /* NOTE : This function should not be modified, when the callback is needed,
 511:Drivers/STM32F1xx_HAL_Driver/Src/stm32f1xx_hal_spi.c ****             the HAL_SPI_MspInit should be implemented in the user file
 512:Drivers/STM32F1xx_HAL_Driver/Src/stm32f1xx_hal_spi.c ****    */
 513:Drivers/STM32F1xx_HAL_Driver/Src/stm32f1xx_hal_spi.c **** }
 289              		.loc 1 513 1
 290 0008 00BF     		nop
ARM GAS  C:\Users\Matvey\AppData\Local\Temp\ccf8E5QD.s 			page 15


 291 000a 0C37     		adds	r7, r7, #12
 292              	.LCFI13:
 293              		.cfi_def_cfa_offset 4
 294 000c BD46     		mov	sp, r7
 295              	.LCFI14:
 296              		.cfi_def_cfa_register 13
 297              		@ sp needed
 298 000e 80BC     		pop	{r7}
 299              	.LCFI15:
 300              		.cfi_restore 7
 301              		.cfi_def_cfa_offset 0
 302 0010 7047     		bx	lr
 303              		.cfi_endproc
 304              	.LFE67:
 306              		.section	.text.HAL_SPI_MspDeInit,"ax",%progbits
 307              		.align	1
 308              		.weak	HAL_SPI_MspDeInit
 309              		.syntax unified
 310              		.thumb
 311              		.thumb_func
 313              	HAL_SPI_MspDeInit:
 314              	.LFB68:
 514:Drivers/STM32F1xx_HAL_Driver/Src/stm32f1xx_hal_spi.c **** 
 515:Drivers/STM32F1xx_HAL_Driver/Src/stm32f1xx_hal_spi.c **** /**
 516:Drivers/STM32F1xx_HAL_Driver/Src/stm32f1xx_hal_spi.c ****   * @brief  De-Initialize the SPI MSP.
 517:Drivers/STM32F1xx_HAL_Driver/Src/stm32f1xx_hal_spi.c ****   * @param  hspi pointer to a SPI_HandleTypeDef structure that contains
 518:Drivers/STM32F1xx_HAL_Driver/Src/stm32f1xx_hal_spi.c ****   *               the configuration information for SPI module.
 519:Drivers/STM32F1xx_HAL_Driver/Src/stm32f1xx_hal_spi.c ****   * @retval None
 520:Drivers/STM32F1xx_HAL_Driver/Src/stm32f1xx_hal_spi.c ****   */
 521:Drivers/STM32F1xx_HAL_Driver/Src/stm32f1xx_hal_spi.c **** __weak void HAL_SPI_MspDeInit(SPI_HandleTypeDef *hspi)
 522:Drivers/STM32F1xx_HAL_Driver/Src/stm32f1xx_hal_spi.c **** {
 315              		.loc 1 522 1
 316              		.cfi_startproc
 317              		@ args = 0, pretend = 0, frame = 8
 318              		@ frame_needed = 1, uses_anonymous_args = 0
 319              		@ link register save eliminated.
 320 0000 80B4     		push	{r7}
 321              	.LCFI16:
 322              		.cfi_def_cfa_offset 4
 323              		.cfi_offset 7, -4
 324 0002 83B0     		sub	sp, sp, #12
 325              	.LCFI17:
 326              		.cfi_def_cfa_offset 16
 327 0004 00AF     		add	r7, sp, #0
 328              	.LCFI18:
 329              		.cfi_def_cfa_register 7
 330 0006 7860     		str	r0, [r7, #4]
 523:Drivers/STM32F1xx_HAL_Driver/Src/stm32f1xx_hal_spi.c ****   /* Prevent unused argument(s) compilation warning */
 524:Drivers/STM32F1xx_HAL_Driver/Src/stm32f1xx_hal_spi.c ****   UNUSED(hspi);
 525:Drivers/STM32F1xx_HAL_Driver/Src/stm32f1xx_hal_spi.c **** 
 526:Drivers/STM32F1xx_HAL_Driver/Src/stm32f1xx_hal_spi.c ****   /* NOTE : This function should not be modified, when the callback is needed,
 527:Drivers/STM32F1xx_HAL_Driver/Src/stm32f1xx_hal_spi.c ****             the HAL_SPI_MspDeInit should be implemented in the user file
 528:Drivers/STM32F1xx_HAL_Driver/Src/stm32f1xx_hal_spi.c ****    */
 529:Drivers/STM32F1xx_HAL_Driver/Src/stm32f1xx_hal_spi.c **** }
 331              		.loc 1 529 1
 332 0008 00BF     		nop
 333 000a 0C37     		adds	r7, r7, #12
ARM GAS  C:\Users\Matvey\AppData\Local\Temp\ccf8E5QD.s 			page 16


 334              	.LCFI19:
 335              		.cfi_def_cfa_offset 4
 336 000c BD46     		mov	sp, r7
 337              	.LCFI20:
 338              		.cfi_def_cfa_register 13
 339              		@ sp needed
 340 000e 80BC     		pop	{r7}
 341              	.LCFI21:
 342              		.cfi_restore 7
 343              		.cfi_def_cfa_offset 0
 344 0010 7047     		bx	lr
 345              		.cfi_endproc
 346              	.LFE68:
 348              		.section	.text.HAL_SPI_Transmit,"ax",%progbits
 349              		.align	1
 350              		.global	HAL_SPI_Transmit
 351              		.syntax unified
 352              		.thumb
 353              		.thumb_func
 355              	HAL_SPI_Transmit:
 356              	.LFB69:
 530:Drivers/STM32F1xx_HAL_Driver/Src/stm32f1xx_hal_spi.c **** 
 531:Drivers/STM32F1xx_HAL_Driver/Src/stm32f1xx_hal_spi.c **** #if (USE_HAL_SPI_REGISTER_CALLBACKS == 1U)
 532:Drivers/STM32F1xx_HAL_Driver/Src/stm32f1xx_hal_spi.c **** /**
 533:Drivers/STM32F1xx_HAL_Driver/Src/stm32f1xx_hal_spi.c ****   * @brief  Register a User SPI Callback
 534:Drivers/STM32F1xx_HAL_Driver/Src/stm32f1xx_hal_spi.c ****   *         To be used instead of the weak predefined callback
 535:Drivers/STM32F1xx_HAL_Driver/Src/stm32f1xx_hal_spi.c ****   * @param  hspi Pointer to a SPI_HandleTypeDef structure that contains
 536:Drivers/STM32F1xx_HAL_Driver/Src/stm32f1xx_hal_spi.c ****   *                the configuration information for the specified SPI.
 537:Drivers/STM32F1xx_HAL_Driver/Src/stm32f1xx_hal_spi.c ****   * @param  CallbackID ID of the callback to be registered
 538:Drivers/STM32F1xx_HAL_Driver/Src/stm32f1xx_hal_spi.c ****   * @param  pCallback pointer to the Callback function
 539:Drivers/STM32F1xx_HAL_Driver/Src/stm32f1xx_hal_spi.c ****   * @retval HAL status
 540:Drivers/STM32F1xx_HAL_Driver/Src/stm32f1xx_hal_spi.c ****   */
 541:Drivers/STM32F1xx_HAL_Driver/Src/stm32f1xx_hal_spi.c **** HAL_StatusTypeDef HAL_SPI_RegisterCallback(SPI_HandleTypeDef *hspi, HAL_SPI_CallbackIDTypeDef Callb
 542:Drivers/STM32F1xx_HAL_Driver/Src/stm32f1xx_hal_spi.c ****                                            pSPI_CallbackTypeDef pCallback)
 543:Drivers/STM32F1xx_HAL_Driver/Src/stm32f1xx_hal_spi.c **** {
 544:Drivers/STM32F1xx_HAL_Driver/Src/stm32f1xx_hal_spi.c ****   HAL_StatusTypeDef status = HAL_OK;
 545:Drivers/STM32F1xx_HAL_Driver/Src/stm32f1xx_hal_spi.c **** 
 546:Drivers/STM32F1xx_HAL_Driver/Src/stm32f1xx_hal_spi.c ****   if (pCallback == NULL)
 547:Drivers/STM32F1xx_HAL_Driver/Src/stm32f1xx_hal_spi.c ****   {
 548:Drivers/STM32F1xx_HAL_Driver/Src/stm32f1xx_hal_spi.c ****     /* Update the error code */
 549:Drivers/STM32F1xx_HAL_Driver/Src/stm32f1xx_hal_spi.c ****     hspi->ErrorCode |= HAL_SPI_ERROR_INVALID_CALLBACK;
 550:Drivers/STM32F1xx_HAL_Driver/Src/stm32f1xx_hal_spi.c **** 
 551:Drivers/STM32F1xx_HAL_Driver/Src/stm32f1xx_hal_spi.c ****     return HAL_ERROR;
 552:Drivers/STM32F1xx_HAL_Driver/Src/stm32f1xx_hal_spi.c ****   }
 553:Drivers/STM32F1xx_HAL_Driver/Src/stm32f1xx_hal_spi.c ****   /* Process locked */
 554:Drivers/STM32F1xx_HAL_Driver/Src/stm32f1xx_hal_spi.c ****   __HAL_LOCK(hspi);
 555:Drivers/STM32F1xx_HAL_Driver/Src/stm32f1xx_hal_spi.c **** 
 556:Drivers/STM32F1xx_HAL_Driver/Src/stm32f1xx_hal_spi.c ****   if (HAL_SPI_STATE_READY == hspi->State)
 557:Drivers/STM32F1xx_HAL_Driver/Src/stm32f1xx_hal_spi.c ****   {
 558:Drivers/STM32F1xx_HAL_Driver/Src/stm32f1xx_hal_spi.c ****     switch (CallbackID)
 559:Drivers/STM32F1xx_HAL_Driver/Src/stm32f1xx_hal_spi.c ****     {
 560:Drivers/STM32F1xx_HAL_Driver/Src/stm32f1xx_hal_spi.c ****       case HAL_SPI_TX_COMPLETE_CB_ID :
 561:Drivers/STM32F1xx_HAL_Driver/Src/stm32f1xx_hal_spi.c ****         hspi->TxCpltCallback = pCallback;
 562:Drivers/STM32F1xx_HAL_Driver/Src/stm32f1xx_hal_spi.c ****         break;
 563:Drivers/STM32F1xx_HAL_Driver/Src/stm32f1xx_hal_spi.c **** 
 564:Drivers/STM32F1xx_HAL_Driver/Src/stm32f1xx_hal_spi.c ****       case HAL_SPI_RX_COMPLETE_CB_ID :
 565:Drivers/STM32F1xx_HAL_Driver/Src/stm32f1xx_hal_spi.c ****         hspi->RxCpltCallback = pCallback;
ARM GAS  C:\Users\Matvey\AppData\Local\Temp\ccf8E5QD.s 			page 17


 566:Drivers/STM32F1xx_HAL_Driver/Src/stm32f1xx_hal_spi.c ****         break;
 567:Drivers/STM32F1xx_HAL_Driver/Src/stm32f1xx_hal_spi.c **** 
 568:Drivers/STM32F1xx_HAL_Driver/Src/stm32f1xx_hal_spi.c ****       case HAL_SPI_TX_RX_COMPLETE_CB_ID :
 569:Drivers/STM32F1xx_HAL_Driver/Src/stm32f1xx_hal_spi.c ****         hspi->TxRxCpltCallback = pCallback;
 570:Drivers/STM32F1xx_HAL_Driver/Src/stm32f1xx_hal_spi.c ****         break;
 571:Drivers/STM32F1xx_HAL_Driver/Src/stm32f1xx_hal_spi.c **** 
 572:Drivers/STM32F1xx_HAL_Driver/Src/stm32f1xx_hal_spi.c ****       case HAL_SPI_TX_HALF_COMPLETE_CB_ID :
 573:Drivers/STM32F1xx_HAL_Driver/Src/stm32f1xx_hal_spi.c ****         hspi->TxHalfCpltCallback = pCallback;
 574:Drivers/STM32F1xx_HAL_Driver/Src/stm32f1xx_hal_spi.c ****         break;
 575:Drivers/STM32F1xx_HAL_Driver/Src/stm32f1xx_hal_spi.c **** 
 576:Drivers/STM32F1xx_HAL_Driver/Src/stm32f1xx_hal_spi.c ****       case HAL_SPI_RX_HALF_COMPLETE_CB_ID :
 577:Drivers/STM32F1xx_HAL_Driver/Src/stm32f1xx_hal_spi.c ****         hspi->RxHalfCpltCallback = pCallback;
 578:Drivers/STM32F1xx_HAL_Driver/Src/stm32f1xx_hal_spi.c ****         break;
 579:Drivers/STM32F1xx_HAL_Driver/Src/stm32f1xx_hal_spi.c **** 
 580:Drivers/STM32F1xx_HAL_Driver/Src/stm32f1xx_hal_spi.c ****       case HAL_SPI_TX_RX_HALF_COMPLETE_CB_ID :
 581:Drivers/STM32F1xx_HAL_Driver/Src/stm32f1xx_hal_spi.c ****         hspi->TxRxHalfCpltCallback = pCallback;
 582:Drivers/STM32F1xx_HAL_Driver/Src/stm32f1xx_hal_spi.c ****         break;
 583:Drivers/STM32F1xx_HAL_Driver/Src/stm32f1xx_hal_spi.c **** 
 584:Drivers/STM32F1xx_HAL_Driver/Src/stm32f1xx_hal_spi.c ****       case HAL_SPI_ERROR_CB_ID :
 585:Drivers/STM32F1xx_HAL_Driver/Src/stm32f1xx_hal_spi.c ****         hspi->ErrorCallback = pCallback;
 586:Drivers/STM32F1xx_HAL_Driver/Src/stm32f1xx_hal_spi.c ****         break;
 587:Drivers/STM32F1xx_HAL_Driver/Src/stm32f1xx_hal_spi.c **** 
 588:Drivers/STM32F1xx_HAL_Driver/Src/stm32f1xx_hal_spi.c ****       case HAL_SPI_ABORT_CB_ID :
 589:Drivers/STM32F1xx_HAL_Driver/Src/stm32f1xx_hal_spi.c ****         hspi->AbortCpltCallback = pCallback;
 590:Drivers/STM32F1xx_HAL_Driver/Src/stm32f1xx_hal_spi.c ****         break;
 591:Drivers/STM32F1xx_HAL_Driver/Src/stm32f1xx_hal_spi.c **** 
 592:Drivers/STM32F1xx_HAL_Driver/Src/stm32f1xx_hal_spi.c ****       case HAL_SPI_MSPINIT_CB_ID :
 593:Drivers/STM32F1xx_HAL_Driver/Src/stm32f1xx_hal_spi.c ****         hspi->MspInitCallback = pCallback;
 594:Drivers/STM32F1xx_HAL_Driver/Src/stm32f1xx_hal_spi.c ****         break;
 595:Drivers/STM32F1xx_HAL_Driver/Src/stm32f1xx_hal_spi.c **** 
 596:Drivers/STM32F1xx_HAL_Driver/Src/stm32f1xx_hal_spi.c ****       case HAL_SPI_MSPDEINIT_CB_ID :
 597:Drivers/STM32F1xx_HAL_Driver/Src/stm32f1xx_hal_spi.c ****         hspi->MspDeInitCallback = pCallback;
 598:Drivers/STM32F1xx_HAL_Driver/Src/stm32f1xx_hal_spi.c ****         break;
 599:Drivers/STM32F1xx_HAL_Driver/Src/stm32f1xx_hal_spi.c **** 
 600:Drivers/STM32F1xx_HAL_Driver/Src/stm32f1xx_hal_spi.c ****       default :
 601:Drivers/STM32F1xx_HAL_Driver/Src/stm32f1xx_hal_spi.c ****         /* Update the error code */
 602:Drivers/STM32F1xx_HAL_Driver/Src/stm32f1xx_hal_spi.c ****         SET_BIT(hspi->ErrorCode, HAL_SPI_ERROR_INVALID_CALLBACK);
 603:Drivers/STM32F1xx_HAL_Driver/Src/stm32f1xx_hal_spi.c **** 
 604:Drivers/STM32F1xx_HAL_Driver/Src/stm32f1xx_hal_spi.c ****         /* Return error status */
 605:Drivers/STM32F1xx_HAL_Driver/Src/stm32f1xx_hal_spi.c ****         status =  HAL_ERROR;
 606:Drivers/STM32F1xx_HAL_Driver/Src/stm32f1xx_hal_spi.c ****         break;
 607:Drivers/STM32F1xx_HAL_Driver/Src/stm32f1xx_hal_spi.c ****     }
 608:Drivers/STM32F1xx_HAL_Driver/Src/stm32f1xx_hal_spi.c ****   }
 609:Drivers/STM32F1xx_HAL_Driver/Src/stm32f1xx_hal_spi.c ****   else if (HAL_SPI_STATE_RESET == hspi->State)
 610:Drivers/STM32F1xx_HAL_Driver/Src/stm32f1xx_hal_spi.c ****   {
 611:Drivers/STM32F1xx_HAL_Driver/Src/stm32f1xx_hal_spi.c ****     switch (CallbackID)
 612:Drivers/STM32F1xx_HAL_Driver/Src/stm32f1xx_hal_spi.c ****     {
 613:Drivers/STM32F1xx_HAL_Driver/Src/stm32f1xx_hal_spi.c ****       case HAL_SPI_MSPINIT_CB_ID :
 614:Drivers/STM32F1xx_HAL_Driver/Src/stm32f1xx_hal_spi.c ****         hspi->MspInitCallback = pCallback;
 615:Drivers/STM32F1xx_HAL_Driver/Src/stm32f1xx_hal_spi.c ****         break;
 616:Drivers/STM32F1xx_HAL_Driver/Src/stm32f1xx_hal_spi.c **** 
 617:Drivers/STM32F1xx_HAL_Driver/Src/stm32f1xx_hal_spi.c ****       case HAL_SPI_MSPDEINIT_CB_ID :
 618:Drivers/STM32F1xx_HAL_Driver/Src/stm32f1xx_hal_spi.c ****         hspi->MspDeInitCallback = pCallback;
 619:Drivers/STM32F1xx_HAL_Driver/Src/stm32f1xx_hal_spi.c ****         break;
 620:Drivers/STM32F1xx_HAL_Driver/Src/stm32f1xx_hal_spi.c **** 
 621:Drivers/STM32F1xx_HAL_Driver/Src/stm32f1xx_hal_spi.c ****       default :
 622:Drivers/STM32F1xx_HAL_Driver/Src/stm32f1xx_hal_spi.c ****         /* Update the error code */
ARM GAS  C:\Users\Matvey\AppData\Local\Temp\ccf8E5QD.s 			page 18


 623:Drivers/STM32F1xx_HAL_Driver/Src/stm32f1xx_hal_spi.c ****         SET_BIT(hspi->ErrorCode, HAL_SPI_ERROR_INVALID_CALLBACK);
 624:Drivers/STM32F1xx_HAL_Driver/Src/stm32f1xx_hal_spi.c **** 
 625:Drivers/STM32F1xx_HAL_Driver/Src/stm32f1xx_hal_spi.c ****         /* Return error status */
 626:Drivers/STM32F1xx_HAL_Driver/Src/stm32f1xx_hal_spi.c ****         status =  HAL_ERROR;
 627:Drivers/STM32F1xx_HAL_Driver/Src/stm32f1xx_hal_spi.c ****         break;
 628:Drivers/STM32F1xx_HAL_Driver/Src/stm32f1xx_hal_spi.c ****     }
 629:Drivers/STM32F1xx_HAL_Driver/Src/stm32f1xx_hal_spi.c ****   }
 630:Drivers/STM32F1xx_HAL_Driver/Src/stm32f1xx_hal_spi.c ****   else
 631:Drivers/STM32F1xx_HAL_Driver/Src/stm32f1xx_hal_spi.c ****   {
 632:Drivers/STM32F1xx_HAL_Driver/Src/stm32f1xx_hal_spi.c ****     /* Update the error code */
 633:Drivers/STM32F1xx_HAL_Driver/Src/stm32f1xx_hal_spi.c ****     SET_BIT(hspi->ErrorCode, HAL_SPI_ERROR_INVALID_CALLBACK);
 634:Drivers/STM32F1xx_HAL_Driver/Src/stm32f1xx_hal_spi.c **** 
 635:Drivers/STM32F1xx_HAL_Driver/Src/stm32f1xx_hal_spi.c ****     /* Return error status */
 636:Drivers/STM32F1xx_HAL_Driver/Src/stm32f1xx_hal_spi.c ****     status =  HAL_ERROR;
 637:Drivers/STM32F1xx_HAL_Driver/Src/stm32f1xx_hal_spi.c ****   }
 638:Drivers/STM32F1xx_HAL_Driver/Src/stm32f1xx_hal_spi.c **** 
 639:Drivers/STM32F1xx_HAL_Driver/Src/stm32f1xx_hal_spi.c ****   /* Release Lock */
 640:Drivers/STM32F1xx_HAL_Driver/Src/stm32f1xx_hal_spi.c ****   __HAL_UNLOCK(hspi);
 641:Drivers/STM32F1xx_HAL_Driver/Src/stm32f1xx_hal_spi.c ****   return status;
 642:Drivers/STM32F1xx_HAL_Driver/Src/stm32f1xx_hal_spi.c **** }
 643:Drivers/STM32F1xx_HAL_Driver/Src/stm32f1xx_hal_spi.c **** 
 644:Drivers/STM32F1xx_HAL_Driver/Src/stm32f1xx_hal_spi.c **** /**
 645:Drivers/STM32F1xx_HAL_Driver/Src/stm32f1xx_hal_spi.c ****   * @brief  Unregister an SPI Callback
 646:Drivers/STM32F1xx_HAL_Driver/Src/stm32f1xx_hal_spi.c ****   *         SPI callback is redirected to the weak predefined callback
 647:Drivers/STM32F1xx_HAL_Driver/Src/stm32f1xx_hal_spi.c ****   * @param  hspi Pointer to a SPI_HandleTypeDef structure that contains
 648:Drivers/STM32F1xx_HAL_Driver/Src/stm32f1xx_hal_spi.c ****   *                the configuration information for the specified SPI.
 649:Drivers/STM32F1xx_HAL_Driver/Src/stm32f1xx_hal_spi.c ****   * @param  CallbackID ID of the callback to be unregistered
 650:Drivers/STM32F1xx_HAL_Driver/Src/stm32f1xx_hal_spi.c ****   * @retval HAL status
 651:Drivers/STM32F1xx_HAL_Driver/Src/stm32f1xx_hal_spi.c ****   */
 652:Drivers/STM32F1xx_HAL_Driver/Src/stm32f1xx_hal_spi.c **** HAL_StatusTypeDef HAL_SPI_UnRegisterCallback(SPI_HandleTypeDef *hspi, HAL_SPI_CallbackIDTypeDef Cal
 653:Drivers/STM32F1xx_HAL_Driver/Src/stm32f1xx_hal_spi.c **** {
 654:Drivers/STM32F1xx_HAL_Driver/Src/stm32f1xx_hal_spi.c ****   HAL_StatusTypeDef status = HAL_OK;
 655:Drivers/STM32F1xx_HAL_Driver/Src/stm32f1xx_hal_spi.c **** 
 656:Drivers/STM32F1xx_HAL_Driver/Src/stm32f1xx_hal_spi.c ****   /* Process locked */
 657:Drivers/STM32F1xx_HAL_Driver/Src/stm32f1xx_hal_spi.c ****   __HAL_LOCK(hspi);
 658:Drivers/STM32F1xx_HAL_Driver/Src/stm32f1xx_hal_spi.c **** 
 659:Drivers/STM32F1xx_HAL_Driver/Src/stm32f1xx_hal_spi.c ****   if (HAL_SPI_STATE_READY == hspi->State)
 660:Drivers/STM32F1xx_HAL_Driver/Src/stm32f1xx_hal_spi.c ****   {
 661:Drivers/STM32F1xx_HAL_Driver/Src/stm32f1xx_hal_spi.c ****     switch (CallbackID)
 662:Drivers/STM32F1xx_HAL_Driver/Src/stm32f1xx_hal_spi.c ****     {
 663:Drivers/STM32F1xx_HAL_Driver/Src/stm32f1xx_hal_spi.c ****       case HAL_SPI_TX_COMPLETE_CB_ID :
 664:Drivers/STM32F1xx_HAL_Driver/Src/stm32f1xx_hal_spi.c ****         hspi->TxCpltCallback = HAL_SPI_TxCpltCallback;             /* Legacy weak TxCpltCallback   
 665:Drivers/STM32F1xx_HAL_Driver/Src/stm32f1xx_hal_spi.c ****         break;
 666:Drivers/STM32F1xx_HAL_Driver/Src/stm32f1xx_hal_spi.c **** 
 667:Drivers/STM32F1xx_HAL_Driver/Src/stm32f1xx_hal_spi.c ****       case HAL_SPI_RX_COMPLETE_CB_ID :
 668:Drivers/STM32F1xx_HAL_Driver/Src/stm32f1xx_hal_spi.c ****         hspi->RxCpltCallback = HAL_SPI_RxCpltCallback;             /* Legacy weak RxCpltCallback   
 669:Drivers/STM32F1xx_HAL_Driver/Src/stm32f1xx_hal_spi.c ****         break;
 670:Drivers/STM32F1xx_HAL_Driver/Src/stm32f1xx_hal_spi.c **** 
 671:Drivers/STM32F1xx_HAL_Driver/Src/stm32f1xx_hal_spi.c ****       case HAL_SPI_TX_RX_COMPLETE_CB_ID :
 672:Drivers/STM32F1xx_HAL_Driver/Src/stm32f1xx_hal_spi.c ****         hspi->TxRxCpltCallback = HAL_SPI_TxRxCpltCallback;         /* Legacy weak TxRxCpltCallback 
 673:Drivers/STM32F1xx_HAL_Driver/Src/stm32f1xx_hal_spi.c ****         break;
 674:Drivers/STM32F1xx_HAL_Driver/Src/stm32f1xx_hal_spi.c **** 
 675:Drivers/STM32F1xx_HAL_Driver/Src/stm32f1xx_hal_spi.c ****       case HAL_SPI_TX_HALF_COMPLETE_CB_ID :
 676:Drivers/STM32F1xx_HAL_Driver/Src/stm32f1xx_hal_spi.c ****         hspi->TxHalfCpltCallback = HAL_SPI_TxHalfCpltCallback;     /* Legacy weak TxHalfCpltCallbac
 677:Drivers/STM32F1xx_HAL_Driver/Src/stm32f1xx_hal_spi.c ****         break;
 678:Drivers/STM32F1xx_HAL_Driver/Src/stm32f1xx_hal_spi.c **** 
 679:Drivers/STM32F1xx_HAL_Driver/Src/stm32f1xx_hal_spi.c ****       case HAL_SPI_RX_HALF_COMPLETE_CB_ID :
ARM GAS  C:\Users\Matvey\AppData\Local\Temp\ccf8E5QD.s 			page 19


 680:Drivers/STM32F1xx_HAL_Driver/Src/stm32f1xx_hal_spi.c ****         hspi->RxHalfCpltCallback = HAL_SPI_RxHalfCpltCallback;     /* Legacy weak RxHalfCpltCallbac
 681:Drivers/STM32F1xx_HAL_Driver/Src/stm32f1xx_hal_spi.c ****         break;
 682:Drivers/STM32F1xx_HAL_Driver/Src/stm32f1xx_hal_spi.c **** 
 683:Drivers/STM32F1xx_HAL_Driver/Src/stm32f1xx_hal_spi.c ****       case HAL_SPI_TX_RX_HALF_COMPLETE_CB_ID :
 684:Drivers/STM32F1xx_HAL_Driver/Src/stm32f1xx_hal_spi.c ****         hspi->TxRxHalfCpltCallback = HAL_SPI_TxRxHalfCpltCallback; /* Legacy weak TxRxHalfCpltCallb
 685:Drivers/STM32F1xx_HAL_Driver/Src/stm32f1xx_hal_spi.c ****         break;
 686:Drivers/STM32F1xx_HAL_Driver/Src/stm32f1xx_hal_spi.c **** 
 687:Drivers/STM32F1xx_HAL_Driver/Src/stm32f1xx_hal_spi.c ****       case HAL_SPI_ERROR_CB_ID :
 688:Drivers/STM32F1xx_HAL_Driver/Src/stm32f1xx_hal_spi.c ****         hspi->ErrorCallback = HAL_SPI_ErrorCallback;               /* Legacy weak ErrorCallback    
 689:Drivers/STM32F1xx_HAL_Driver/Src/stm32f1xx_hal_spi.c ****         break;
 690:Drivers/STM32F1xx_HAL_Driver/Src/stm32f1xx_hal_spi.c **** 
 691:Drivers/STM32F1xx_HAL_Driver/Src/stm32f1xx_hal_spi.c ****       case HAL_SPI_ABORT_CB_ID :
 692:Drivers/STM32F1xx_HAL_Driver/Src/stm32f1xx_hal_spi.c ****         hspi->AbortCpltCallback = HAL_SPI_AbortCpltCallback;       /* Legacy weak AbortCpltCallback
 693:Drivers/STM32F1xx_HAL_Driver/Src/stm32f1xx_hal_spi.c ****         break;
 694:Drivers/STM32F1xx_HAL_Driver/Src/stm32f1xx_hal_spi.c **** 
 695:Drivers/STM32F1xx_HAL_Driver/Src/stm32f1xx_hal_spi.c ****       case HAL_SPI_MSPINIT_CB_ID :
 696:Drivers/STM32F1xx_HAL_Driver/Src/stm32f1xx_hal_spi.c ****         hspi->MspInitCallback = HAL_SPI_MspInit;                   /* Legacy weak MspInit          
 697:Drivers/STM32F1xx_HAL_Driver/Src/stm32f1xx_hal_spi.c ****         break;
 698:Drivers/STM32F1xx_HAL_Driver/Src/stm32f1xx_hal_spi.c **** 
 699:Drivers/STM32F1xx_HAL_Driver/Src/stm32f1xx_hal_spi.c ****       case HAL_SPI_MSPDEINIT_CB_ID :
 700:Drivers/STM32F1xx_HAL_Driver/Src/stm32f1xx_hal_spi.c ****         hspi->MspDeInitCallback = HAL_SPI_MspDeInit;               /* Legacy weak MspDeInit        
 701:Drivers/STM32F1xx_HAL_Driver/Src/stm32f1xx_hal_spi.c ****         break;
 702:Drivers/STM32F1xx_HAL_Driver/Src/stm32f1xx_hal_spi.c **** 
 703:Drivers/STM32F1xx_HAL_Driver/Src/stm32f1xx_hal_spi.c ****       default :
 704:Drivers/STM32F1xx_HAL_Driver/Src/stm32f1xx_hal_spi.c ****         /* Update the error code */
 705:Drivers/STM32F1xx_HAL_Driver/Src/stm32f1xx_hal_spi.c ****         SET_BIT(hspi->ErrorCode, HAL_SPI_ERROR_INVALID_CALLBACK);
 706:Drivers/STM32F1xx_HAL_Driver/Src/stm32f1xx_hal_spi.c **** 
 707:Drivers/STM32F1xx_HAL_Driver/Src/stm32f1xx_hal_spi.c ****         /* Return error status */
 708:Drivers/STM32F1xx_HAL_Driver/Src/stm32f1xx_hal_spi.c ****         status =  HAL_ERROR;
 709:Drivers/STM32F1xx_HAL_Driver/Src/stm32f1xx_hal_spi.c ****         break;
 710:Drivers/STM32F1xx_HAL_Driver/Src/stm32f1xx_hal_spi.c ****     }
 711:Drivers/STM32F1xx_HAL_Driver/Src/stm32f1xx_hal_spi.c ****   }
 712:Drivers/STM32F1xx_HAL_Driver/Src/stm32f1xx_hal_spi.c ****   else if (HAL_SPI_STATE_RESET == hspi->State)
 713:Drivers/STM32F1xx_HAL_Driver/Src/stm32f1xx_hal_spi.c ****   {
 714:Drivers/STM32F1xx_HAL_Driver/Src/stm32f1xx_hal_spi.c ****     switch (CallbackID)
 715:Drivers/STM32F1xx_HAL_Driver/Src/stm32f1xx_hal_spi.c ****     {
 716:Drivers/STM32F1xx_HAL_Driver/Src/stm32f1xx_hal_spi.c ****       case HAL_SPI_MSPINIT_CB_ID :
 717:Drivers/STM32F1xx_HAL_Driver/Src/stm32f1xx_hal_spi.c ****         hspi->MspInitCallback = HAL_SPI_MspInit;                   /* Legacy weak MspInit          
 718:Drivers/STM32F1xx_HAL_Driver/Src/stm32f1xx_hal_spi.c ****         break;
 719:Drivers/STM32F1xx_HAL_Driver/Src/stm32f1xx_hal_spi.c **** 
 720:Drivers/STM32F1xx_HAL_Driver/Src/stm32f1xx_hal_spi.c ****       case HAL_SPI_MSPDEINIT_CB_ID :
 721:Drivers/STM32F1xx_HAL_Driver/Src/stm32f1xx_hal_spi.c ****         hspi->MspDeInitCallback = HAL_SPI_MspDeInit;               /* Legacy weak MspDeInit        
 722:Drivers/STM32F1xx_HAL_Driver/Src/stm32f1xx_hal_spi.c ****         break;
 723:Drivers/STM32F1xx_HAL_Driver/Src/stm32f1xx_hal_spi.c **** 
 724:Drivers/STM32F1xx_HAL_Driver/Src/stm32f1xx_hal_spi.c ****       default :
 725:Drivers/STM32F1xx_HAL_Driver/Src/stm32f1xx_hal_spi.c ****         /* Update the error code */
 726:Drivers/STM32F1xx_HAL_Driver/Src/stm32f1xx_hal_spi.c ****         SET_BIT(hspi->ErrorCode, HAL_SPI_ERROR_INVALID_CALLBACK);
 727:Drivers/STM32F1xx_HAL_Driver/Src/stm32f1xx_hal_spi.c **** 
 728:Drivers/STM32F1xx_HAL_Driver/Src/stm32f1xx_hal_spi.c ****         /* Return error status */
 729:Drivers/STM32F1xx_HAL_Driver/Src/stm32f1xx_hal_spi.c ****         status =  HAL_ERROR;
 730:Drivers/STM32F1xx_HAL_Driver/Src/stm32f1xx_hal_spi.c ****         break;
 731:Drivers/STM32F1xx_HAL_Driver/Src/stm32f1xx_hal_spi.c ****     }
 732:Drivers/STM32F1xx_HAL_Driver/Src/stm32f1xx_hal_spi.c ****   }
 733:Drivers/STM32F1xx_HAL_Driver/Src/stm32f1xx_hal_spi.c ****   else
 734:Drivers/STM32F1xx_HAL_Driver/Src/stm32f1xx_hal_spi.c ****   {
 735:Drivers/STM32F1xx_HAL_Driver/Src/stm32f1xx_hal_spi.c ****     /* Update the error code */
 736:Drivers/STM32F1xx_HAL_Driver/Src/stm32f1xx_hal_spi.c ****     SET_BIT(hspi->ErrorCode, HAL_SPI_ERROR_INVALID_CALLBACK);
ARM GAS  C:\Users\Matvey\AppData\Local\Temp\ccf8E5QD.s 			page 20


 737:Drivers/STM32F1xx_HAL_Driver/Src/stm32f1xx_hal_spi.c **** 
 738:Drivers/STM32F1xx_HAL_Driver/Src/stm32f1xx_hal_spi.c ****     /* Return error status */
 739:Drivers/STM32F1xx_HAL_Driver/Src/stm32f1xx_hal_spi.c ****     status =  HAL_ERROR;
 740:Drivers/STM32F1xx_HAL_Driver/Src/stm32f1xx_hal_spi.c ****   }
 741:Drivers/STM32F1xx_HAL_Driver/Src/stm32f1xx_hal_spi.c **** 
 742:Drivers/STM32F1xx_HAL_Driver/Src/stm32f1xx_hal_spi.c ****   /* Release Lock */
 743:Drivers/STM32F1xx_HAL_Driver/Src/stm32f1xx_hal_spi.c ****   __HAL_UNLOCK(hspi);
 744:Drivers/STM32F1xx_HAL_Driver/Src/stm32f1xx_hal_spi.c ****   return status;
 745:Drivers/STM32F1xx_HAL_Driver/Src/stm32f1xx_hal_spi.c **** }
 746:Drivers/STM32F1xx_HAL_Driver/Src/stm32f1xx_hal_spi.c **** #endif /* USE_HAL_SPI_REGISTER_CALLBACKS */
 747:Drivers/STM32F1xx_HAL_Driver/Src/stm32f1xx_hal_spi.c **** /**
 748:Drivers/STM32F1xx_HAL_Driver/Src/stm32f1xx_hal_spi.c ****   * @}
 749:Drivers/STM32F1xx_HAL_Driver/Src/stm32f1xx_hal_spi.c ****   */
 750:Drivers/STM32F1xx_HAL_Driver/Src/stm32f1xx_hal_spi.c **** 
 751:Drivers/STM32F1xx_HAL_Driver/Src/stm32f1xx_hal_spi.c **** /** @defgroup SPI_Exported_Functions_Group2 IO operation functions
 752:Drivers/STM32F1xx_HAL_Driver/Src/stm32f1xx_hal_spi.c ****   *  @brief   Data transfers functions
 753:Drivers/STM32F1xx_HAL_Driver/Src/stm32f1xx_hal_spi.c ****   *
 754:Drivers/STM32F1xx_HAL_Driver/Src/stm32f1xx_hal_spi.c **** @verbatim
 755:Drivers/STM32F1xx_HAL_Driver/Src/stm32f1xx_hal_spi.c ****   ==============================================================================
 756:Drivers/STM32F1xx_HAL_Driver/Src/stm32f1xx_hal_spi.c ****                       ##### IO operation functions #####
 757:Drivers/STM32F1xx_HAL_Driver/Src/stm32f1xx_hal_spi.c ****  ===============================================================================
 758:Drivers/STM32F1xx_HAL_Driver/Src/stm32f1xx_hal_spi.c ****  [..]
 759:Drivers/STM32F1xx_HAL_Driver/Src/stm32f1xx_hal_spi.c ****     This subsection provides a set of functions allowing to manage the SPI
 760:Drivers/STM32F1xx_HAL_Driver/Src/stm32f1xx_hal_spi.c ****     data transfers.
 761:Drivers/STM32F1xx_HAL_Driver/Src/stm32f1xx_hal_spi.c **** 
 762:Drivers/STM32F1xx_HAL_Driver/Src/stm32f1xx_hal_spi.c ****     [..] The SPI supports master and slave mode :
 763:Drivers/STM32F1xx_HAL_Driver/Src/stm32f1xx_hal_spi.c **** 
 764:Drivers/STM32F1xx_HAL_Driver/Src/stm32f1xx_hal_spi.c ****     (#) There are two modes of transfer:
 765:Drivers/STM32F1xx_HAL_Driver/Src/stm32f1xx_hal_spi.c ****        (++) Blocking mode: The communication is performed in polling mode.
 766:Drivers/STM32F1xx_HAL_Driver/Src/stm32f1xx_hal_spi.c ****             The HAL status of all data processing is returned by the same function
 767:Drivers/STM32F1xx_HAL_Driver/Src/stm32f1xx_hal_spi.c ****             after finishing transfer.
 768:Drivers/STM32F1xx_HAL_Driver/Src/stm32f1xx_hal_spi.c ****        (++) No-Blocking mode: The communication is performed using Interrupts
 769:Drivers/STM32F1xx_HAL_Driver/Src/stm32f1xx_hal_spi.c ****             or DMA, These APIs return the HAL status.
 770:Drivers/STM32F1xx_HAL_Driver/Src/stm32f1xx_hal_spi.c ****             The end of the data processing will be indicated through the
 771:Drivers/STM32F1xx_HAL_Driver/Src/stm32f1xx_hal_spi.c ****             dedicated SPI IRQ when using Interrupt mode or the DMA IRQ when
 772:Drivers/STM32F1xx_HAL_Driver/Src/stm32f1xx_hal_spi.c ****             using DMA mode.
 773:Drivers/STM32F1xx_HAL_Driver/Src/stm32f1xx_hal_spi.c ****             The HAL_SPI_TxCpltCallback(), HAL_SPI_RxCpltCallback() and HAL_SPI_TxRxCpltCallback() u
 774:Drivers/STM32F1xx_HAL_Driver/Src/stm32f1xx_hal_spi.c ****             will be executed respectively at the end of the transmit or Receive process
 775:Drivers/STM32F1xx_HAL_Driver/Src/stm32f1xx_hal_spi.c ****             The HAL_SPI_ErrorCallback()user callback will be executed when a communication error is
 776:Drivers/STM32F1xx_HAL_Driver/Src/stm32f1xx_hal_spi.c **** 
 777:Drivers/STM32F1xx_HAL_Driver/Src/stm32f1xx_hal_spi.c ****     (#) APIs provided for these 2 transfer modes (Blocking mode or Non blocking mode using either I
 778:Drivers/STM32F1xx_HAL_Driver/Src/stm32f1xx_hal_spi.c ****         exist for 1Line (simplex) and 2Lines (full duplex) modes.
 779:Drivers/STM32F1xx_HAL_Driver/Src/stm32f1xx_hal_spi.c **** 
 780:Drivers/STM32F1xx_HAL_Driver/Src/stm32f1xx_hal_spi.c **** @endverbatim
 781:Drivers/STM32F1xx_HAL_Driver/Src/stm32f1xx_hal_spi.c ****   * @{
 782:Drivers/STM32F1xx_HAL_Driver/Src/stm32f1xx_hal_spi.c ****   */
 783:Drivers/STM32F1xx_HAL_Driver/Src/stm32f1xx_hal_spi.c **** 
 784:Drivers/STM32F1xx_HAL_Driver/Src/stm32f1xx_hal_spi.c **** /**
 785:Drivers/STM32F1xx_HAL_Driver/Src/stm32f1xx_hal_spi.c ****   * @brief  Transmit an amount of data in blocking mode.
 786:Drivers/STM32F1xx_HAL_Driver/Src/stm32f1xx_hal_spi.c ****   * @param  hspi pointer to a SPI_HandleTypeDef structure that contains
 787:Drivers/STM32F1xx_HAL_Driver/Src/stm32f1xx_hal_spi.c ****   *               the configuration information for SPI module.
 788:Drivers/STM32F1xx_HAL_Driver/Src/stm32f1xx_hal_spi.c ****   * @param  pData pointer to data buffer
 789:Drivers/STM32F1xx_HAL_Driver/Src/stm32f1xx_hal_spi.c ****   * @param  Size amount of data to be sent
 790:Drivers/STM32F1xx_HAL_Driver/Src/stm32f1xx_hal_spi.c ****   * @param  Timeout Timeout duration
 791:Drivers/STM32F1xx_HAL_Driver/Src/stm32f1xx_hal_spi.c ****   * @retval HAL status
 792:Drivers/STM32F1xx_HAL_Driver/Src/stm32f1xx_hal_spi.c ****   */
 793:Drivers/STM32F1xx_HAL_Driver/Src/stm32f1xx_hal_spi.c **** HAL_StatusTypeDef HAL_SPI_Transmit(SPI_HandleTypeDef *hspi, uint8_t *pData, uint16_t Size, uint32_t
ARM GAS  C:\Users\Matvey\AppData\Local\Temp\ccf8E5QD.s 			page 21


 794:Drivers/STM32F1xx_HAL_Driver/Src/stm32f1xx_hal_spi.c **** {
 357              		.loc 1 794 1
 358              		.cfi_startproc
 359              		@ args = 0, pretend = 0, frame = 32
 360              		@ frame_needed = 1, uses_anonymous_args = 0
 361 0000 80B5     		push	{r7, lr}
 362              	.LCFI22:
 363              		.cfi_def_cfa_offset 8
 364              		.cfi_offset 7, -8
 365              		.cfi_offset 14, -4
 366 0002 88B0     		sub	sp, sp, #32
 367              	.LCFI23:
 368              		.cfi_def_cfa_offset 40
 369 0004 00AF     		add	r7, sp, #0
 370              	.LCFI24:
 371              		.cfi_def_cfa_register 7
 372 0006 F860     		str	r0, [r7, #12]
 373 0008 B960     		str	r1, [r7, #8]
 374 000a 3B60     		str	r3, [r7]
 375 000c 1346     		mov	r3, r2	@ movhi
 376 000e FB80     		strh	r3, [r7, #6]	@ movhi
 795:Drivers/STM32F1xx_HAL_Driver/Src/stm32f1xx_hal_spi.c ****   uint32_t tickstart;
 796:Drivers/STM32F1xx_HAL_Driver/Src/stm32f1xx_hal_spi.c ****   HAL_StatusTypeDef errorcode = HAL_OK;
 377              		.loc 1 796 21
 378 0010 0023     		movs	r3, #0
 379 0012 FB77     		strb	r3, [r7, #31]
 797:Drivers/STM32F1xx_HAL_Driver/Src/stm32f1xx_hal_spi.c ****   uint16_t initial_TxXferCount;
 798:Drivers/STM32F1xx_HAL_Driver/Src/stm32f1xx_hal_spi.c **** 
 799:Drivers/STM32F1xx_HAL_Driver/Src/stm32f1xx_hal_spi.c ****   /* Check Direction parameter */
 800:Drivers/STM32F1xx_HAL_Driver/Src/stm32f1xx_hal_spi.c ****   assert_param(IS_SPI_DIRECTION_2LINES_OR_1LINE(hspi->Init.Direction));
 801:Drivers/STM32F1xx_HAL_Driver/Src/stm32f1xx_hal_spi.c **** 
 802:Drivers/STM32F1xx_HAL_Driver/Src/stm32f1xx_hal_spi.c ****   /* Process Locked */
 803:Drivers/STM32F1xx_HAL_Driver/Src/stm32f1xx_hal_spi.c ****   __HAL_LOCK(hspi);
 380              		.loc 1 803 3
 381 0014 FB68     		ldr	r3, [r7, #12]
 382 0016 93F85030 		ldrb	r3, [r3, #80]	@ zero_extendqisi2
 383 001a 012B     		cmp	r3, #1
 384 001c 01D1     		bne	.L13
 385              		.loc 1 803 3 is_stmt 0 discriminator 1
 386 001e 0223     		movs	r3, #2
 387 0020 2DE1     		b	.L14
 388              	.L13:
 389              		.loc 1 803 3 discriminator 2
 390 0022 FB68     		ldr	r3, [r7, #12]
 391 0024 0122     		movs	r2, #1
 392 0026 83F85020 		strb	r2, [r3, #80]
 804:Drivers/STM32F1xx_HAL_Driver/Src/stm32f1xx_hal_spi.c **** 
 805:Drivers/STM32F1xx_HAL_Driver/Src/stm32f1xx_hal_spi.c ****   /* Init tickstart for timeout management*/
 806:Drivers/STM32F1xx_HAL_Driver/Src/stm32f1xx_hal_spi.c ****   tickstart = HAL_GetTick();
 393              		.loc 1 806 15 is_stmt 1 discriminator 2
 394 002a FFF7FEFF 		bl	HAL_GetTick
 395 002e B861     		str	r0, [r7, #24]
 807:Drivers/STM32F1xx_HAL_Driver/Src/stm32f1xx_hal_spi.c ****   initial_TxXferCount = Size;
 396              		.loc 1 807 23 discriminator 2
 397 0030 FB88     		ldrh	r3, [r7, #6]	@ movhi
 398 0032 FB82     		strh	r3, [r7, #22]	@ movhi
 808:Drivers/STM32F1xx_HAL_Driver/Src/stm32f1xx_hal_spi.c **** 
ARM GAS  C:\Users\Matvey\AppData\Local\Temp\ccf8E5QD.s 			page 22


 809:Drivers/STM32F1xx_HAL_Driver/Src/stm32f1xx_hal_spi.c ****   if (hspi->State != HAL_SPI_STATE_READY)
 399              		.loc 1 809 11 discriminator 2
 400 0034 FB68     		ldr	r3, [r7, #12]
 401 0036 93F85130 		ldrb	r3, [r3, #81]
 402 003a DBB2     		uxtb	r3, r3
 403              		.loc 1 809 6 discriminator 2
 404 003c 012B     		cmp	r3, #1
 405 003e 02D0     		beq	.L15
 810:Drivers/STM32F1xx_HAL_Driver/Src/stm32f1xx_hal_spi.c ****   {
 811:Drivers/STM32F1xx_HAL_Driver/Src/stm32f1xx_hal_spi.c ****     errorcode = HAL_BUSY;
 406              		.loc 1 811 15
 407 0040 0223     		movs	r3, #2
 408 0042 FB77     		strb	r3, [r7, #31]
 812:Drivers/STM32F1xx_HAL_Driver/Src/stm32f1xx_hal_spi.c ****     goto error;
 409              		.loc 1 812 5
 410 0044 16E1     		b	.L16
 411              	.L15:
 813:Drivers/STM32F1xx_HAL_Driver/Src/stm32f1xx_hal_spi.c ****   }
 814:Drivers/STM32F1xx_HAL_Driver/Src/stm32f1xx_hal_spi.c **** 
 815:Drivers/STM32F1xx_HAL_Driver/Src/stm32f1xx_hal_spi.c ****   if ((pData == NULL) || (Size == 0U))
 412              		.loc 1 815 6
 413 0046 BB68     		ldr	r3, [r7, #8]
 414 0048 002B     		cmp	r3, #0
 415 004a 02D0     		beq	.L17
 416              		.loc 1 815 23 discriminator 1
 417 004c FB88     		ldrh	r3, [r7, #6]
 418 004e 002B     		cmp	r3, #0
 419 0050 02D1     		bne	.L18
 420              	.L17:
 816:Drivers/STM32F1xx_HAL_Driver/Src/stm32f1xx_hal_spi.c ****   {
 817:Drivers/STM32F1xx_HAL_Driver/Src/stm32f1xx_hal_spi.c ****     errorcode = HAL_ERROR;
 421              		.loc 1 817 15
 422 0052 0123     		movs	r3, #1
 423 0054 FB77     		strb	r3, [r7, #31]
 818:Drivers/STM32F1xx_HAL_Driver/Src/stm32f1xx_hal_spi.c ****     goto error;
 424              		.loc 1 818 5
 425 0056 0DE1     		b	.L16
 426              	.L18:
 819:Drivers/STM32F1xx_HAL_Driver/Src/stm32f1xx_hal_spi.c ****   }
 820:Drivers/STM32F1xx_HAL_Driver/Src/stm32f1xx_hal_spi.c **** 
 821:Drivers/STM32F1xx_HAL_Driver/Src/stm32f1xx_hal_spi.c ****   /* Set the transaction information */
 822:Drivers/STM32F1xx_HAL_Driver/Src/stm32f1xx_hal_spi.c ****   hspi->State       = HAL_SPI_STATE_BUSY_TX;
 427              		.loc 1 822 21
 428 0058 FB68     		ldr	r3, [r7, #12]
 429 005a 0322     		movs	r2, #3
 430 005c 83F85120 		strb	r2, [r3, #81]
 823:Drivers/STM32F1xx_HAL_Driver/Src/stm32f1xx_hal_spi.c ****   hspi->ErrorCode   = HAL_SPI_ERROR_NONE;
 431              		.loc 1 823 21
 432 0060 FB68     		ldr	r3, [r7, #12]
 433 0062 0022     		movs	r2, #0
 434 0064 5A65     		str	r2, [r3, #84]
 824:Drivers/STM32F1xx_HAL_Driver/Src/stm32f1xx_hal_spi.c ****   hspi->pTxBuffPtr  = (uint8_t *)pData;
 435              		.loc 1 824 21
 436 0066 FB68     		ldr	r3, [r7, #12]
 437 0068 BA68     		ldr	r2, [r7, #8]
 438 006a 1A63     		str	r2, [r3, #48]
 825:Drivers/STM32F1xx_HAL_Driver/Src/stm32f1xx_hal_spi.c ****   hspi->TxXferSize  = Size;
ARM GAS  C:\Users\Matvey\AppData\Local\Temp\ccf8E5QD.s 			page 23


 439              		.loc 1 825 21
 440 006c FB68     		ldr	r3, [r7, #12]
 441 006e FA88     		ldrh	r2, [r7, #6]	@ movhi
 442 0070 9A86     		strh	r2, [r3, #52]	@ movhi
 826:Drivers/STM32F1xx_HAL_Driver/Src/stm32f1xx_hal_spi.c ****   hspi->TxXferCount = Size;
 443              		.loc 1 826 21
 444 0072 FB68     		ldr	r3, [r7, #12]
 445 0074 FA88     		ldrh	r2, [r7, #6]	@ movhi
 446 0076 DA86     		strh	r2, [r3, #54]	@ movhi
 827:Drivers/STM32F1xx_HAL_Driver/Src/stm32f1xx_hal_spi.c **** 
 828:Drivers/STM32F1xx_HAL_Driver/Src/stm32f1xx_hal_spi.c ****   /*Init field not used in handle to zero */
 829:Drivers/STM32F1xx_HAL_Driver/Src/stm32f1xx_hal_spi.c ****   hspi->pRxBuffPtr  = (uint8_t *)NULL;
 447              		.loc 1 829 21
 448 0078 FB68     		ldr	r3, [r7, #12]
 449 007a 0022     		movs	r2, #0
 450 007c 9A63     		str	r2, [r3, #56]
 830:Drivers/STM32F1xx_HAL_Driver/Src/stm32f1xx_hal_spi.c ****   hspi->RxXferSize  = 0U;
 451              		.loc 1 830 21
 452 007e FB68     		ldr	r3, [r7, #12]
 453 0080 0022     		movs	r2, #0
 454 0082 9A87     		strh	r2, [r3, #60]	@ movhi
 831:Drivers/STM32F1xx_HAL_Driver/Src/stm32f1xx_hal_spi.c ****   hspi->RxXferCount = 0U;
 455              		.loc 1 831 21
 456 0084 FB68     		ldr	r3, [r7, #12]
 457 0086 0022     		movs	r2, #0
 458 0088 DA87     		strh	r2, [r3, #62]	@ movhi
 832:Drivers/STM32F1xx_HAL_Driver/Src/stm32f1xx_hal_spi.c ****   hspi->TxISR       = NULL;
 459              		.loc 1 832 21
 460 008a FB68     		ldr	r3, [r7, #12]
 461 008c 0022     		movs	r2, #0
 462 008e 5A64     		str	r2, [r3, #68]
 833:Drivers/STM32F1xx_HAL_Driver/Src/stm32f1xx_hal_spi.c ****   hspi->RxISR       = NULL;
 463              		.loc 1 833 21
 464 0090 FB68     		ldr	r3, [r7, #12]
 465 0092 0022     		movs	r2, #0
 466 0094 1A64     		str	r2, [r3, #64]
 834:Drivers/STM32F1xx_HAL_Driver/Src/stm32f1xx_hal_spi.c **** 
 835:Drivers/STM32F1xx_HAL_Driver/Src/stm32f1xx_hal_spi.c ****   /* Configure communication direction : 1Line */
 836:Drivers/STM32F1xx_HAL_Driver/Src/stm32f1xx_hal_spi.c ****   if (hspi->Init.Direction == SPI_DIRECTION_1LINE)
 467              		.loc 1 836 17
 468 0096 FB68     		ldr	r3, [r7, #12]
 469 0098 9B68     		ldr	r3, [r3, #8]
 470              		.loc 1 836 6
 471 009a B3F5004F 		cmp	r3, #32768
 472 009e 0FD1     		bne	.L19
 837:Drivers/STM32F1xx_HAL_Driver/Src/stm32f1xx_hal_spi.c ****   {
 838:Drivers/STM32F1xx_HAL_Driver/Src/stm32f1xx_hal_spi.c ****     /* Disable SPI Peripheral before set 1Line direction (BIDIOE bit) */
 839:Drivers/STM32F1xx_HAL_Driver/Src/stm32f1xx_hal_spi.c ****     __HAL_SPI_DISABLE(hspi);
 473              		.loc 1 839 5
 474 00a0 FB68     		ldr	r3, [r7, #12]
 475 00a2 1B68     		ldr	r3, [r3]
 476 00a4 1A68     		ldr	r2, [r3]
 477 00a6 FB68     		ldr	r3, [r7, #12]
 478 00a8 1B68     		ldr	r3, [r3]
 479 00aa 22F04002 		bic	r2, r2, #64
 480 00ae 1A60     		str	r2, [r3]
 840:Drivers/STM32F1xx_HAL_Driver/Src/stm32f1xx_hal_spi.c ****     SPI_1LINE_TX(hspi);
ARM GAS  C:\Users\Matvey\AppData\Local\Temp\ccf8E5QD.s 			page 24


 481              		.loc 1 840 5
 482 00b0 FB68     		ldr	r3, [r7, #12]
 483 00b2 1B68     		ldr	r3, [r3]
 484 00b4 1A68     		ldr	r2, [r3]
 485 00b6 FB68     		ldr	r3, [r7, #12]
 486 00b8 1B68     		ldr	r3, [r3]
 487 00ba 42F48042 		orr	r2, r2, #16384
 488 00be 1A60     		str	r2, [r3]
 489              	.L19:
 841:Drivers/STM32F1xx_HAL_Driver/Src/stm32f1xx_hal_spi.c ****   }
 842:Drivers/STM32F1xx_HAL_Driver/Src/stm32f1xx_hal_spi.c **** 
 843:Drivers/STM32F1xx_HAL_Driver/Src/stm32f1xx_hal_spi.c **** #if (USE_SPI_CRC != 0U)
 844:Drivers/STM32F1xx_HAL_Driver/Src/stm32f1xx_hal_spi.c ****   /* Reset CRC Calculation */
 845:Drivers/STM32F1xx_HAL_Driver/Src/stm32f1xx_hal_spi.c ****   if (hspi->Init.CRCCalculation == SPI_CRCCALCULATION_ENABLE)
 846:Drivers/STM32F1xx_HAL_Driver/Src/stm32f1xx_hal_spi.c ****   {
 847:Drivers/STM32F1xx_HAL_Driver/Src/stm32f1xx_hal_spi.c ****     SPI_RESET_CRC(hspi);
 848:Drivers/STM32F1xx_HAL_Driver/Src/stm32f1xx_hal_spi.c ****   }
 849:Drivers/STM32F1xx_HAL_Driver/Src/stm32f1xx_hal_spi.c **** #endif /* USE_SPI_CRC */
 850:Drivers/STM32F1xx_HAL_Driver/Src/stm32f1xx_hal_spi.c **** 
 851:Drivers/STM32F1xx_HAL_Driver/Src/stm32f1xx_hal_spi.c ****   /* Check if the SPI is already enabled */
 852:Drivers/STM32F1xx_HAL_Driver/Src/stm32f1xx_hal_spi.c ****   if ((hspi->Instance->CR1 & SPI_CR1_SPE) != SPI_CR1_SPE)
 490              		.loc 1 852 12
 491 00c0 FB68     		ldr	r3, [r7, #12]
 492 00c2 1B68     		ldr	r3, [r3]
 493              		.loc 1 852 22
 494 00c4 1B68     		ldr	r3, [r3]
 495              		.loc 1 852 28
 496 00c6 03F04003 		and	r3, r3, #64
 497              		.loc 1 852 6
 498 00ca 402B     		cmp	r3, #64
 499 00cc 07D0     		beq	.L20
 853:Drivers/STM32F1xx_HAL_Driver/Src/stm32f1xx_hal_spi.c ****   {
 854:Drivers/STM32F1xx_HAL_Driver/Src/stm32f1xx_hal_spi.c ****     /* Enable SPI peripheral */
 855:Drivers/STM32F1xx_HAL_Driver/Src/stm32f1xx_hal_spi.c ****     __HAL_SPI_ENABLE(hspi);
 500              		.loc 1 855 5
 501 00ce FB68     		ldr	r3, [r7, #12]
 502 00d0 1B68     		ldr	r3, [r3]
 503 00d2 1A68     		ldr	r2, [r3]
 504 00d4 FB68     		ldr	r3, [r7, #12]
 505 00d6 1B68     		ldr	r3, [r3]
 506 00d8 42F04002 		orr	r2, r2, #64
 507 00dc 1A60     		str	r2, [r3]
 508              	.L20:
 856:Drivers/STM32F1xx_HAL_Driver/Src/stm32f1xx_hal_spi.c ****   }
 857:Drivers/STM32F1xx_HAL_Driver/Src/stm32f1xx_hal_spi.c **** 
 858:Drivers/STM32F1xx_HAL_Driver/Src/stm32f1xx_hal_spi.c ****   /* Transmit data in 16 Bit mode */
 859:Drivers/STM32F1xx_HAL_Driver/Src/stm32f1xx_hal_spi.c ****   if (hspi->Init.DataSize == SPI_DATASIZE_16BIT)
 509              		.loc 1 859 17
 510 00de FB68     		ldr	r3, [r7, #12]
 511 00e0 DB68     		ldr	r3, [r3, #12]
 512              		.loc 1 859 6
 513 00e2 B3F5006F 		cmp	r3, #2048
 514 00e6 4FD1     		bne	.L21
 860:Drivers/STM32F1xx_HAL_Driver/Src/stm32f1xx_hal_spi.c ****   {
 861:Drivers/STM32F1xx_HAL_Driver/Src/stm32f1xx_hal_spi.c ****     if ((hspi->Init.Mode == SPI_MODE_SLAVE) || (initial_TxXferCount == 0x01U))
 515              		.loc 1 861 20
 516 00e8 FB68     		ldr	r3, [r7, #12]
ARM GAS  C:\Users\Matvey\AppData\Local\Temp\ccf8E5QD.s 			page 25


 517 00ea 5B68     		ldr	r3, [r3, #4]
 518              		.loc 1 861 8
 519 00ec 002B     		cmp	r3, #0
 520 00ee 02D0     		beq	.L22
 521              		.loc 1 861 45 discriminator 1
 522 00f0 FB8A     		ldrh	r3, [r7, #22]
 523 00f2 012B     		cmp	r3, #1
 524 00f4 42D1     		bne	.L24
 525              	.L22:
 862:Drivers/STM32F1xx_HAL_Driver/Src/stm32f1xx_hal_spi.c ****     {
 863:Drivers/STM32F1xx_HAL_Driver/Src/stm32f1xx_hal_spi.c ****       hspi->Instance->DR = *((uint16_t *)hspi->pTxBuffPtr);
 526              		.loc 1 863 46
 527 00f6 FB68     		ldr	r3, [r7, #12]
 528 00f8 1B6B     		ldr	r3, [r3, #48]
 529              		.loc 1 863 28
 530 00fa 1A88     		ldrh	r2, [r3]
 531              		.loc 1 863 11
 532 00fc FB68     		ldr	r3, [r7, #12]
 533 00fe 1B68     		ldr	r3, [r3]
 534              		.loc 1 863 26
 535 0100 DA60     		str	r2, [r3, #12]
 864:Drivers/STM32F1xx_HAL_Driver/Src/stm32f1xx_hal_spi.c ****       hspi->pTxBuffPtr += sizeof(uint16_t);
 536              		.loc 1 864 24
 537 0102 FB68     		ldr	r3, [r7, #12]
 538 0104 1B6B     		ldr	r3, [r3, #48]
 539 0106 9A1C     		adds	r2, r3, #2
 540 0108 FB68     		ldr	r3, [r7, #12]
 541 010a 1A63     		str	r2, [r3, #48]
 865:Drivers/STM32F1xx_HAL_Driver/Src/stm32f1xx_hal_spi.c ****       hspi->TxXferCount--;
 542              		.loc 1 865 11
 543 010c FB68     		ldr	r3, [r7, #12]
 544 010e DB8E     		ldrh	r3, [r3, #54]	@ movhi
 545 0110 9BB2     		uxth	r3, r3
 546              		.loc 1 865 24
 547 0112 013B     		subs	r3, r3, #1
 548 0114 9AB2     		uxth	r2, r3
 549 0116 FB68     		ldr	r3, [r7, #12]
 550 0118 DA86     		strh	r2, [r3, #54]	@ movhi
 866:Drivers/STM32F1xx_HAL_Driver/Src/stm32f1xx_hal_spi.c ****     }
 867:Drivers/STM32F1xx_HAL_Driver/Src/stm32f1xx_hal_spi.c ****     /* Transmit data in 16 Bit mode */
 868:Drivers/STM32F1xx_HAL_Driver/Src/stm32f1xx_hal_spi.c ****     while (hspi->TxXferCount > 0U)
 551              		.loc 1 868 11
 552 011a 2FE0     		b	.L24
 553              	.L28:
 869:Drivers/STM32F1xx_HAL_Driver/Src/stm32f1xx_hal_spi.c ****     {
 870:Drivers/STM32F1xx_HAL_Driver/Src/stm32f1xx_hal_spi.c ****       /* Wait until TXE flag is set to send data */
 871:Drivers/STM32F1xx_HAL_Driver/Src/stm32f1xx_hal_spi.c ****       if (__HAL_SPI_GET_FLAG(hspi, SPI_FLAG_TXE))
 554              		.loc 1 871 11
 555 011c FB68     		ldr	r3, [r7, #12]
 556 011e 1B68     		ldr	r3, [r3]
 557 0120 9B68     		ldr	r3, [r3, #8]
 558 0122 03F00203 		and	r3, r3, #2
 559              		.loc 1 871 10
 560 0126 022B     		cmp	r3, #2
 561 0128 12D1     		bne	.L25
 872:Drivers/STM32F1xx_HAL_Driver/Src/stm32f1xx_hal_spi.c ****       {
 873:Drivers/STM32F1xx_HAL_Driver/Src/stm32f1xx_hal_spi.c ****         hspi->Instance->DR = *((uint16_t *)hspi->pTxBuffPtr);
ARM GAS  C:\Users\Matvey\AppData\Local\Temp\ccf8E5QD.s 			page 26


 562              		.loc 1 873 48
 563 012a FB68     		ldr	r3, [r7, #12]
 564 012c 1B6B     		ldr	r3, [r3, #48]
 565              		.loc 1 873 30
 566 012e 1A88     		ldrh	r2, [r3]
 567              		.loc 1 873 13
 568 0130 FB68     		ldr	r3, [r7, #12]
 569 0132 1B68     		ldr	r3, [r3]
 570              		.loc 1 873 28
 571 0134 DA60     		str	r2, [r3, #12]
 874:Drivers/STM32F1xx_HAL_Driver/Src/stm32f1xx_hal_spi.c ****         hspi->pTxBuffPtr += sizeof(uint16_t);
 572              		.loc 1 874 26
 573 0136 FB68     		ldr	r3, [r7, #12]
 574 0138 1B6B     		ldr	r3, [r3, #48]
 575 013a 9A1C     		adds	r2, r3, #2
 576 013c FB68     		ldr	r3, [r7, #12]
 577 013e 1A63     		str	r2, [r3, #48]
 875:Drivers/STM32F1xx_HAL_Driver/Src/stm32f1xx_hal_spi.c ****         hspi->TxXferCount--;
 578              		.loc 1 875 13
 579 0140 FB68     		ldr	r3, [r7, #12]
 580 0142 DB8E     		ldrh	r3, [r3, #54]	@ movhi
 581 0144 9BB2     		uxth	r3, r3
 582              		.loc 1 875 26
 583 0146 013B     		subs	r3, r3, #1
 584 0148 9AB2     		uxth	r2, r3
 585 014a FB68     		ldr	r3, [r7, #12]
 586 014c DA86     		strh	r2, [r3, #54]	@ movhi
 587 014e 15E0     		b	.L24
 588              	.L25:
 876:Drivers/STM32F1xx_HAL_Driver/Src/stm32f1xx_hal_spi.c ****       }
 877:Drivers/STM32F1xx_HAL_Driver/Src/stm32f1xx_hal_spi.c ****       else
 878:Drivers/STM32F1xx_HAL_Driver/Src/stm32f1xx_hal_spi.c ****       {
 879:Drivers/STM32F1xx_HAL_Driver/Src/stm32f1xx_hal_spi.c ****         /* Timeout management */
 880:Drivers/STM32F1xx_HAL_Driver/Src/stm32f1xx_hal_spi.c ****         if ((((HAL_GetTick() - tickstart) >=  Timeout) && (Timeout != HAL_MAX_DELAY)) || (Timeout =
 589              		.loc 1 880 16
 590 0150 FFF7FEFF 		bl	HAL_GetTick
 591 0154 0246     		mov	r2, r0
 592              		.loc 1 880 30
 593 0156 BB69     		ldr	r3, [r7, #24]
 594 0158 D31A     		subs	r3, r2, r3
 595              		.loc 1 880 12
 596 015a 3A68     		ldr	r2, [r7]
 597 015c 9A42     		cmp	r2, r3
 598 015e 03D8     		bhi	.L26
 599              		.loc 1 880 56 discriminator 1
 600 0160 3B68     		ldr	r3, [r7]
 601 0162 B3F1FF3F 		cmp	r3, #-1
 602 0166 02D1     		bne	.L27
 603              	.L26:
 604              		.loc 1 880 87 discriminator 3
 605 0168 3B68     		ldr	r3, [r7]
 606 016a 002B     		cmp	r3, #0
 607 016c 06D1     		bne	.L24
 608              	.L27:
 881:Drivers/STM32F1xx_HAL_Driver/Src/stm32f1xx_hal_spi.c ****         {
 882:Drivers/STM32F1xx_HAL_Driver/Src/stm32f1xx_hal_spi.c ****           errorcode = HAL_TIMEOUT;
 609              		.loc 1 882 21
ARM GAS  C:\Users\Matvey\AppData\Local\Temp\ccf8E5QD.s 			page 27


 610 016e 0323     		movs	r3, #3
 611 0170 FB77     		strb	r3, [r7, #31]
 883:Drivers/STM32F1xx_HAL_Driver/Src/stm32f1xx_hal_spi.c ****           hspi->State = HAL_SPI_STATE_READY;
 612              		.loc 1 883 23
 613 0172 FB68     		ldr	r3, [r7, #12]
 614 0174 0122     		movs	r2, #1
 615 0176 83F85120 		strb	r2, [r3, #81]
 884:Drivers/STM32F1xx_HAL_Driver/Src/stm32f1xx_hal_spi.c ****           goto error;
 616              		.loc 1 884 11
 617 017a 7BE0     		b	.L16
 618              	.L24:
 868:Drivers/STM32F1xx_HAL_Driver/Src/stm32f1xx_hal_spi.c ****     {
 619              		.loc 1 868 16
 620 017c FB68     		ldr	r3, [r7, #12]
 621 017e DB8E     		ldrh	r3, [r3, #54]	@ movhi
 622 0180 9BB2     		uxth	r3, r3
 868:Drivers/STM32F1xx_HAL_Driver/Src/stm32f1xx_hal_spi.c ****     {
 623              		.loc 1 868 11
 624 0182 002B     		cmp	r3, #0
 625 0184 CAD1     		bne	.L28
 626 0186 50E0     		b	.L29
 627              	.L21:
 885:Drivers/STM32F1xx_HAL_Driver/Src/stm32f1xx_hal_spi.c ****         }
 886:Drivers/STM32F1xx_HAL_Driver/Src/stm32f1xx_hal_spi.c ****       }
 887:Drivers/STM32F1xx_HAL_Driver/Src/stm32f1xx_hal_spi.c ****     }
 888:Drivers/STM32F1xx_HAL_Driver/Src/stm32f1xx_hal_spi.c ****   }
 889:Drivers/STM32F1xx_HAL_Driver/Src/stm32f1xx_hal_spi.c ****   /* Transmit data in 8 Bit mode */
 890:Drivers/STM32F1xx_HAL_Driver/Src/stm32f1xx_hal_spi.c ****   else
 891:Drivers/STM32F1xx_HAL_Driver/Src/stm32f1xx_hal_spi.c ****   {
 892:Drivers/STM32F1xx_HAL_Driver/Src/stm32f1xx_hal_spi.c ****     if ((hspi->Init.Mode == SPI_MODE_SLAVE) || (initial_TxXferCount == 0x01U))
 628              		.loc 1 892 20
 629 0188 FB68     		ldr	r3, [r7, #12]
 630 018a 5B68     		ldr	r3, [r3, #4]
 631              		.loc 1 892 8
 632 018c 002B     		cmp	r3, #0
 633 018e 02D0     		beq	.L30
 634              		.loc 1 892 45 discriminator 1
 635 0190 FB8A     		ldrh	r3, [r7, #22]
 636 0192 012B     		cmp	r3, #1
 637 0194 44D1     		bne	.L32
 638              	.L30:
 893:Drivers/STM32F1xx_HAL_Driver/Src/stm32f1xx_hal_spi.c ****     {
 894:Drivers/STM32F1xx_HAL_Driver/Src/stm32f1xx_hal_spi.c ****       *((__IO uint8_t *)&hspi->Instance->DR) = (*hspi->pTxBuffPtr);
 639              		.loc 1 894 54
 640 0196 FB68     		ldr	r3, [r7, #12]
 641 0198 1A6B     		ldr	r2, [r3, #48]
 642              		.loc 1 894 30
 643 019a FB68     		ldr	r3, [r7, #12]
 644 019c 1B68     		ldr	r3, [r3]
 645              		.loc 1 894 25
 646 019e 0C33     		adds	r3, r3, #12
 647              		.loc 1 894 49
 648 01a0 1278     		ldrb	r2, [r2]	@ zero_extendqisi2
 649              		.loc 1 894 46
 650 01a2 1A70     		strb	r2, [r3]
 895:Drivers/STM32F1xx_HAL_Driver/Src/stm32f1xx_hal_spi.c ****       hspi->pTxBuffPtr += sizeof(uint8_t);
 651              		.loc 1 895 24
ARM GAS  C:\Users\Matvey\AppData\Local\Temp\ccf8E5QD.s 			page 28


 652 01a4 FB68     		ldr	r3, [r7, #12]
 653 01a6 1B6B     		ldr	r3, [r3, #48]
 654 01a8 5A1C     		adds	r2, r3, #1
 655 01aa FB68     		ldr	r3, [r7, #12]
 656 01ac 1A63     		str	r2, [r3, #48]
 896:Drivers/STM32F1xx_HAL_Driver/Src/stm32f1xx_hal_spi.c ****       hspi->TxXferCount--;
 657              		.loc 1 896 11
 658 01ae FB68     		ldr	r3, [r7, #12]
 659 01b0 DB8E     		ldrh	r3, [r3, #54]	@ movhi
 660 01b2 9BB2     		uxth	r3, r3
 661              		.loc 1 896 24
 662 01b4 013B     		subs	r3, r3, #1
 663 01b6 9AB2     		uxth	r2, r3
 664 01b8 FB68     		ldr	r3, [r7, #12]
 665 01ba DA86     		strh	r2, [r3, #54]	@ movhi
 897:Drivers/STM32F1xx_HAL_Driver/Src/stm32f1xx_hal_spi.c ****     }
 898:Drivers/STM32F1xx_HAL_Driver/Src/stm32f1xx_hal_spi.c ****     while (hspi->TxXferCount > 0U)
 666              		.loc 1 898 11
 667 01bc 30E0     		b	.L32
 668              	.L36:
 899:Drivers/STM32F1xx_HAL_Driver/Src/stm32f1xx_hal_spi.c ****     {
 900:Drivers/STM32F1xx_HAL_Driver/Src/stm32f1xx_hal_spi.c ****       /* Wait until TXE flag is set to send data */
 901:Drivers/STM32F1xx_HAL_Driver/Src/stm32f1xx_hal_spi.c ****       if (__HAL_SPI_GET_FLAG(hspi, SPI_FLAG_TXE))
 669              		.loc 1 901 11
 670 01be FB68     		ldr	r3, [r7, #12]
 671 01c0 1B68     		ldr	r3, [r3]
 672 01c2 9B68     		ldr	r3, [r3, #8]
 673 01c4 03F00203 		and	r3, r3, #2
 674              		.loc 1 901 10
 675 01c8 022B     		cmp	r3, #2
 676 01ca 13D1     		bne	.L33
 902:Drivers/STM32F1xx_HAL_Driver/Src/stm32f1xx_hal_spi.c ****       {
 903:Drivers/STM32F1xx_HAL_Driver/Src/stm32f1xx_hal_spi.c ****         *((__IO uint8_t *)&hspi->Instance->DR) = (*hspi->pTxBuffPtr);
 677              		.loc 1 903 56
 678 01cc FB68     		ldr	r3, [r7, #12]
 679 01ce 1A6B     		ldr	r2, [r3, #48]
 680              		.loc 1 903 32
 681 01d0 FB68     		ldr	r3, [r7, #12]
 682 01d2 1B68     		ldr	r3, [r3]
 683              		.loc 1 903 27
 684 01d4 0C33     		adds	r3, r3, #12
 685              		.loc 1 903 51
 686 01d6 1278     		ldrb	r2, [r2]	@ zero_extendqisi2
 687              		.loc 1 903 48
 688 01d8 1A70     		strb	r2, [r3]
 904:Drivers/STM32F1xx_HAL_Driver/Src/stm32f1xx_hal_spi.c ****         hspi->pTxBuffPtr += sizeof(uint8_t);
 689              		.loc 1 904 26
 690 01da FB68     		ldr	r3, [r7, #12]
 691 01dc 1B6B     		ldr	r3, [r3, #48]
 692 01de 5A1C     		adds	r2, r3, #1
 693 01e0 FB68     		ldr	r3, [r7, #12]
 694 01e2 1A63     		str	r2, [r3, #48]
 905:Drivers/STM32F1xx_HAL_Driver/Src/stm32f1xx_hal_spi.c ****         hspi->TxXferCount--;
 695              		.loc 1 905 13
 696 01e4 FB68     		ldr	r3, [r7, #12]
 697 01e6 DB8E     		ldrh	r3, [r3, #54]	@ movhi
 698 01e8 9BB2     		uxth	r3, r3
ARM GAS  C:\Users\Matvey\AppData\Local\Temp\ccf8E5QD.s 			page 29


 699              		.loc 1 905 26
 700 01ea 013B     		subs	r3, r3, #1
 701 01ec 9AB2     		uxth	r2, r3
 702 01ee FB68     		ldr	r3, [r7, #12]
 703 01f0 DA86     		strh	r2, [r3, #54]	@ movhi
 704 01f2 15E0     		b	.L32
 705              	.L33:
 906:Drivers/STM32F1xx_HAL_Driver/Src/stm32f1xx_hal_spi.c ****       }
 907:Drivers/STM32F1xx_HAL_Driver/Src/stm32f1xx_hal_spi.c ****       else
 908:Drivers/STM32F1xx_HAL_Driver/Src/stm32f1xx_hal_spi.c ****       {
 909:Drivers/STM32F1xx_HAL_Driver/Src/stm32f1xx_hal_spi.c ****         /* Timeout management */
 910:Drivers/STM32F1xx_HAL_Driver/Src/stm32f1xx_hal_spi.c ****         if ((((HAL_GetTick() - tickstart) >=  Timeout) && (Timeout != HAL_MAX_DELAY)) || (Timeout =
 706              		.loc 1 910 16
 707 01f4 FFF7FEFF 		bl	HAL_GetTick
 708 01f8 0246     		mov	r2, r0
 709              		.loc 1 910 30
 710 01fa BB69     		ldr	r3, [r7, #24]
 711 01fc D31A     		subs	r3, r2, r3
 712              		.loc 1 910 12
 713 01fe 3A68     		ldr	r2, [r7]
 714 0200 9A42     		cmp	r2, r3
 715 0202 03D8     		bhi	.L34
 716              		.loc 1 910 56 discriminator 1
 717 0204 3B68     		ldr	r3, [r7]
 718 0206 B3F1FF3F 		cmp	r3, #-1
 719 020a 02D1     		bne	.L35
 720              	.L34:
 721              		.loc 1 910 87 discriminator 3
 722 020c 3B68     		ldr	r3, [r7]
 723 020e 002B     		cmp	r3, #0
 724 0210 06D1     		bne	.L32
 725              	.L35:
 911:Drivers/STM32F1xx_HAL_Driver/Src/stm32f1xx_hal_spi.c ****         {
 912:Drivers/STM32F1xx_HAL_Driver/Src/stm32f1xx_hal_spi.c ****           errorcode = HAL_TIMEOUT;
 726              		.loc 1 912 21
 727 0212 0323     		movs	r3, #3
 728 0214 FB77     		strb	r3, [r7, #31]
 913:Drivers/STM32F1xx_HAL_Driver/Src/stm32f1xx_hal_spi.c ****           hspi->State = HAL_SPI_STATE_READY;
 729              		.loc 1 913 23
 730 0216 FB68     		ldr	r3, [r7, #12]
 731 0218 0122     		movs	r2, #1
 732 021a 83F85120 		strb	r2, [r3, #81]
 914:Drivers/STM32F1xx_HAL_Driver/Src/stm32f1xx_hal_spi.c ****           goto error;
 733              		.loc 1 914 11
 734 021e 29E0     		b	.L16
 735              	.L32:
 898:Drivers/STM32F1xx_HAL_Driver/Src/stm32f1xx_hal_spi.c ****     {
 736              		.loc 1 898 16
 737 0220 FB68     		ldr	r3, [r7, #12]
 738 0222 DB8E     		ldrh	r3, [r3, #54]	@ movhi
 739 0224 9BB2     		uxth	r3, r3
 898:Drivers/STM32F1xx_HAL_Driver/Src/stm32f1xx_hal_spi.c ****     {
 740              		.loc 1 898 11
 741 0226 002B     		cmp	r3, #0
 742 0228 C9D1     		bne	.L36
 743              	.L29:
 915:Drivers/STM32F1xx_HAL_Driver/Src/stm32f1xx_hal_spi.c ****         }
ARM GAS  C:\Users\Matvey\AppData\Local\Temp\ccf8E5QD.s 			page 30


 916:Drivers/STM32F1xx_HAL_Driver/Src/stm32f1xx_hal_spi.c ****       }
 917:Drivers/STM32F1xx_HAL_Driver/Src/stm32f1xx_hal_spi.c ****     }
 918:Drivers/STM32F1xx_HAL_Driver/Src/stm32f1xx_hal_spi.c ****   }
 919:Drivers/STM32F1xx_HAL_Driver/Src/stm32f1xx_hal_spi.c **** #if (USE_SPI_CRC != 0U)
 920:Drivers/STM32F1xx_HAL_Driver/Src/stm32f1xx_hal_spi.c ****   /* Enable CRC Transmission */
 921:Drivers/STM32F1xx_HAL_Driver/Src/stm32f1xx_hal_spi.c ****   if (hspi->Init.CRCCalculation == SPI_CRCCALCULATION_ENABLE)
 922:Drivers/STM32F1xx_HAL_Driver/Src/stm32f1xx_hal_spi.c ****   {
 923:Drivers/STM32F1xx_HAL_Driver/Src/stm32f1xx_hal_spi.c ****     SET_BIT(hspi->Instance->CR1, SPI_CR1_CRCNEXT);
 924:Drivers/STM32F1xx_HAL_Driver/Src/stm32f1xx_hal_spi.c ****   }
 925:Drivers/STM32F1xx_HAL_Driver/Src/stm32f1xx_hal_spi.c **** #endif /* USE_SPI_CRC */
 926:Drivers/STM32F1xx_HAL_Driver/Src/stm32f1xx_hal_spi.c **** 
 927:Drivers/STM32F1xx_HAL_Driver/Src/stm32f1xx_hal_spi.c ****   /* Check the end of the transaction */
 928:Drivers/STM32F1xx_HAL_Driver/Src/stm32f1xx_hal_spi.c ****   if (SPI_EndRxTxTransaction(hspi, Timeout, tickstart) != HAL_OK)
 744              		.loc 1 928 7
 745 022a BA69     		ldr	r2, [r7, #24]
 746 022c 3968     		ldr	r1, [r7]
 747 022e F868     		ldr	r0, [r7, #12]
 748 0230 FFF7FEFF 		bl	SPI_EndRxTxTransaction
 749 0234 0346     		mov	r3, r0
 750              		.loc 1 928 6
 751 0236 002B     		cmp	r3, #0
 752 0238 02D0     		beq	.L37
 929:Drivers/STM32F1xx_HAL_Driver/Src/stm32f1xx_hal_spi.c ****   {
 930:Drivers/STM32F1xx_HAL_Driver/Src/stm32f1xx_hal_spi.c ****     hspi->ErrorCode = HAL_SPI_ERROR_FLAG;
 753              		.loc 1 930 21
 754 023a FB68     		ldr	r3, [r7, #12]
 755 023c 2022     		movs	r2, #32
 756 023e 5A65     		str	r2, [r3, #84]
 757              	.L37:
 931:Drivers/STM32F1xx_HAL_Driver/Src/stm32f1xx_hal_spi.c ****   }
 932:Drivers/STM32F1xx_HAL_Driver/Src/stm32f1xx_hal_spi.c **** 
 933:Drivers/STM32F1xx_HAL_Driver/Src/stm32f1xx_hal_spi.c ****   /* Clear overrun flag in 2 Lines communication mode because received is not read */
 934:Drivers/STM32F1xx_HAL_Driver/Src/stm32f1xx_hal_spi.c ****   if (hspi->Init.Direction == SPI_DIRECTION_2LINES)
 758              		.loc 1 934 17
 759 0240 FB68     		ldr	r3, [r7, #12]
 760 0242 9B68     		ldr	r3, [r3, #8]
 761              		.loc 1 934 6
 762 0244 002B     		cmp	r3, #0
 763 0246 0AD1     		bne	.L38
 764              	.LBB2:
 935:Drivers/STM32F1xx_HAL_Driver/Src/stm32f1xx_hal_spi.c ****   {
 936:Drivers/STM32F1xx_HAL_Driver/Src/stm32f1xx_hal_spi.c ****     __HAL_SPI_CLEAR_OVRFLAG(hspi);
 765              		.loc 1 936 5
 766 0248 0023     		movs	r3, #0
 767 024a 3B61     		str	r3, [r7, #16]
 768 024c FB68     		ldr	r3, [r7, #12]
 769 024e 1B68     		ldr	r3, [r3]
 770 0250 DB68     		ldr	r3, [r3, #12]
 771 0252 3B61     		str	r3, [r7, #16]
 772 0254 FB68     		ldr	r3, [r7, #12]
 773 0256 1B68     		ldr	r3, [r3]
 774 0258 9B68     		ldr	r3, [r3, #8]
 775 025a 3B61     		str	r3, [r7, #16]
 776 025c 3B69     		ldr	r3, [r7, #16]
 777              	.L38:
 778              	.LBE2:
 937:Drivers/STM32F1xx_HAL_Driver/Src/stm32f1xx_hal_spi.c ****   }
ARM GAS  C:\Users\Matvey\AppData\Local\Temp\ccf8E5QD.s 			page 31


 938:Drivers/STM32F1xx_HAL_Driver/Src/stm32f1xx_hal_spi.c **** 
 939:Drivers/STM32F1xx_HAL_Driver/Src/stm32f1xx_hal_spi.c ****   if (hspi->ErrorCode != HAL_SPI_ERROR_NONE)
 779              		.loc 1 939 11
 780 025e FB68     		ldr	r3, [r7, #12]
 781 0260 5B6D     		ldr	r3, [r3, #84]
 782              		.loc 1 939 6
 783 0262 002B     		cmp	r3, #0
 784 0264 02D0     		beq	.L39
 940:Drivers/STM32F1xx_HAL_Driver/Src/stm32f1xx_hal_spi.c ****   {
 941:Drivers/STM32F1xx_HAL_Driver/Src/stm32f1xx_hal_spi.c ****     errorcode = HAL_ERROR;
 785              		.loc 1 941 15
 786 0266 0123     		movs	r3, #1
 787 0268 FB77     		strb	r3, [r7, #31]
 788 026a 03E0     		b	.L16
 789              	.L39:
 942:Drivers/STM32F1xx_HAL_Driver/Src/stm32f1xx_hal_spi.c ****   }
 943:Drivers/STM32F1xx_HAL_Driver/Src/stm32f1xx_hal_spi.c ****   else
 944:Drivers/STM32F1xx_HAL_Driver/Src/stm32f1xx_hal_spi.c ****   {
 945:Drivers/STM32F1xx_HAL_Driver/Src/stm32f1xx_hal_spi.c ****     hspi->State = HAL_SPI_STATE_READY;
 790              		.loc 1 945 17
 791 026c FB68     		ldr	r3, [r7, #12]
 792 026e 0122     		movs	r2, #1
 793 0270 83F85120 		strb	r2, [r3, #81]
 794              	.L16:
 946:Drivers/STM32F1xx_HAL_Driver/Src/stm32f1xx_hal_spi.c ****   }
 947:Drivers/STM32F1xx_HAL_Driver/Src/stm32f1xx_hal_spi.c **** 
 948:Drivers/STM32F1xx_HAL_Driver/Src/stm32f1xx_hal_spi.c **** error:
 949:Drivers/STM32F1xx_HAL_Driver/Src/stm32f1xx_hal_spi.c ****   /* Process Unlocked */
 950:Drivers/STM32F1xx_HAL_Driver/Src/stm32f1xx_hal_spi.c ****   __HAL_UNLOCK(hspi);
 795              		.loc 1 950 3
 796 0274 FB68     		ldr	r3, [r7, #12]
 797 0276 0022     		movs	r2, #0
 798 0278 83F85020 		strb	r2, [r3, #80]
 951:Drivers/STM32F1xx_HAL_Driver/Src/stm32f1xx_hal_spi.c ****   return errorcode;
 799              		.loc 1 951 10
 800 027c FB7F     		ldrb	r3, [r7, #31]	@ zero_extendqisi2
 801              	.L14:
 952:Drivers/STM32F1xx_HAL_Driver/Src/stm32f1xx_hal_spi.c **** }
 802              		.loc 1 952 1
 803 027e 1846     		mov	r0, r3
 804 0280 2037     		adds	r7, r7, #32
 805              	.LCFI25:
 806              		.cfi_def_cfa_offset 8
 807 0282 BD46     		mov	sp, r7
 808              	.LCFI26:
 809              		.cfi_def_cfa_register 13
 810              		@ sp needed
 811 0284 80BD     		pop	{r7, pc}
 812              		.cfi_endproc
 813              	.LFE69:
 815              		.section	.text.HAL_SPI_Receive,"ax",%progbits
 816              		.align	1
 817              		.global	HAL_SPI_Receive
 818              		.syntax unified
 819              		.thumb
 820              		.thumb_func
 822              	HAL_SPI_Receive:
ARM GAS  C:\Users\Matvey\AppData\Local\Temp\ccf8E5QD.s 			page 32


 823              	.LFB70:
 953:Drivers/STM32F1xx_HAL_Driver/Src/stm32f1xx_hal_spi.c **** 
 954:Drivers/STM32F1xx_HAL_Driver/Src/stm32f1xx_hal_spi.c **** /**
 955:Drivers/STM32F1xx_HAL_Driver/Src/stm32f1xx_hal_spi.c ****   * @brief  Receive an amount of data in blocking mode.
 956:Drivers/STM32F1xx_HAL_Driver/Src/stm32f1xx_hal_spi.c ****   * @param  hspi pointer to a SPI_HandleTypeDef structure that contains
 957:Drivers/STM32F1xx_HAL_Driver/Src/stm32f1xx_hal_spi.c ****   *               the configuration information for SPI module.
 958:Drivers/STM32F1xx_HAL_Driver/Src/stm32f1xx_hal_spi.c ****   * @param  pData pointer to data buffer
 959:Drivers/STM32F1xx_HAL_Driver/Src/stm32f1xx_hal_spi.c ****   * @param  Size amount of data to be received
 960:Drivers/STM32F1xx_HAL_Driver/Src/stm32f1xx_hal_spi.c ****   * @param  Timeout Timeout duration
 961:Drivers/STM32F1xx_HAL_Driver/Src/stm32f1xx_hal_spi.c ****   * @retval HAL status
 962:Drivers/STM32F1xx_HAL_Driver/Src/stm32f1xx_hal_spi.c ****   */
 963:Drivers/STM32F1xx_HAL_Driver/Src/stm32f1xx_hal_spi.c **** HAL_StatusTypeDef HAL_SPI_Receive(SPI_HandleTypeDef *hspi, uint8_t *pData, uint16_t Size, uint32_t 
 964:Drivers/STM32F1xx_HAL_Driver/Src/stm32f1xx_hal_spi.c **** {
 824              		.loc 1 964 1
 825              		.cfi_startproc
 826              		@ args = 0, pretend = 0, frame = 24
 827              		@ frame_needed = 1, uses_anonymous_args = 0
 828 0000 80B5     		push	{r7, lr}
 829              	.LCFI27:
 830              		.cfi_def_cfa_offset 8
 831              		.cfi_offset 7, -8
 832              		.cfi_offset 14, -4
 833 0002 88B0     		sub	sp, sp, #32
 834              	.LCFI28:
 835              		.cfi_def_cfa_offset 40
 836 0004 02AF     		add	r7, sp, #8
 837              	.LCFI29:
 838              		.cfi_def_cfa 7, 32
 839 0006 F860     		str	r0, [r7, #12]
 840 0008 B960     		str	r1, [r7, #8]
 841 000a 3B60     		str	r3, [r7]
 842 000c 1346     		mov	r3, r2	@ movhi
 843 000e FB80     		strh	r3, [r7, #6]	@ movhi
 965:Drivers/STM32F1xx_HAL_Driver/Src/stm32f1xx_hal_spi.c **** #if (USE_SPI_CRC != 0U)
 966:Drivers/STM32F1xx_HAL_Driver/Src/stm32f1xx_hal_spi.c ****   __IO uint32_t tmpreg = 0U;
 967:Drivers/STM32F1xx_HAL_Driver/Src/stm32f1xx_hal_spi.c **** #endif /* USE_SPI_CRC */
 968:Drivers/STM32F1xx_HAL_Driver/Src/stm32f1xx_hal_spi.c ****   uint32_t tickstart;
 969:Drivers/STM32F1xx_HAL_Driver/Src/stm32f1xx_hal_spi.c ****   HAL_StatusTypeDef errorcode = HAL_OK;
 844              		.loc 1 969 21
 845 0010 0023     		movs	r3, #0
 846 0012 FB75     		strb	r3, [r7, #23]
 970:Drivers/STM32F1xx_HAL_Driver/Src/stm32f1xx_hal_spi.c **** 
 971:Drivers/STM32F1xx_HAL_Driver/Src/stm32f1xx_hal_spi.c ****   if (hspi->State != HAL_SPI_STATE_READY)
 847              		.loc 1 971 11
 848 0014 FB68     		ldr	r3, [r7, #12]
 849 0016 93F85130 		ldrb	r3, [r3, #81]
 850 001a DBB2     		uxtb	r3, r3
 851              		.loc 1 971 6
 852 001c 012B     		cmp	r3, #1
 853 001e 02D0     		beq	.L41
 972:Drivers/STM32F1xx_HAL_Driver/Src/stm32f1xx_hal_spi.c ****   {
 973:Drivers/STM32F1xx_HAL_Driver/Src/stm32f1xx_hal_spi.c ****     errorcode = HAL_BUSY;
 854              		.loc 1 973 15
 855 0020 0223     		movs	r3, #2
 856 0022 FB75     		strb	r3, [r7, #23]
 974:Drivers/STM32F1xx_HAL_Driver/Src/stm32f1xx_hal_spi.c ****     goto error;
 857              		.loc 1 974 5
ARM GAS  C:\Users\Matvey\AppData\Local\Temp\ccf8E5QD.s 			page 33


 858 0024 FBE0     		b	.L42
 859              	.L41:
 975:Drivers/STM32F1xx_HAL_Driver/Src/stm32f1xx_hal_spi.c ****   }
 976:Drivers/STM32F1xx_HAL_Driver/Src/stm32f1xx_hal_spi.c **** 
 977:Drivers/STM32F1xx_HAL_Driver/Src/stm32f1xx_hal_spi.c ****   if ((hspi->Init.Mode == SPI_MODE_MASTER) && (hspi->Init.Direction == SPI_DIRECTION_2LINES))
 860              		.loc 1 977 18
 861 0026 FB68     		ldr	r3, [r7, #12]
 862 0028 5B68     		ldr	r3, [r3, #4]
 863              		.loc 1 977 6
 864 002a B3F5827F 		cmp	r3, #260
 865 002e 12D1     		bne	.L43
 866              		.loc 1 977 58 discriminator 1
 867 0030 FB68     		ldr	r3, [r7, #12]
 868 0032 9B68     		ldr	r3, [r3, #8]
 869              		.loc 1 977 44 discriminator 1
 870 0034 002B     		cmp	r3, #0
 871 0036 0ED1     		bne	.L43
 978:Drivers/STM32F1xx_HAL_Driver/Src/stm32f1xx_hal_spi.c ****   {
 979:Drivers/STM32F1xx_HAL_Driver/Src/stm32f1xx_hal_spi.c ****     hspi->State = HAL_SPI_STATE_BUSY_RX;
 872              		.loc 1 979 17
 873 0038 FB68     		ldr	r3, [r7, #12]
 874 003a 0422     		movs	r2, #4
 875 003c 83F85120 		strb	r2, [r3, #81]
 980:Drivers/STM32F1xx_HAL_Driver/Src/stm32f1xx_hal_spi.c ****     /* Call transmit-receive function to send Dummy data on Tx line and generate clock on CLK line 
 981:Drivers/STM32F1xx_HAL_Driver/Src/stm32f1xx_hal_spi.c ****     return HAL_SPI_TransmitReceive(hspi, pData, pData, Size, Timeout);
 876              		.loc 1 981 12
 877 0040 FA88     		ldrh	r2, [r7, #6]
 878 0042 3B68     		ldr	r3, [r7]
 879 0044 0093     		str	r3, [sp]
 880 0046 1346     		mov	r3, r2
 881 0048 BA68     		ldr	r2, [r7, #8]
 882 004a B968     		ldr	r1, [r7, #8]
 883 004c F868     		ldr	r0, [r7, #12]
 884 004e FFF7FEFF 		bl	HAL_SPI_TransmitReceive
 885 0052 0346     		mov	r3, r0
 886 0054 E8E0     		b	.L44
 887              	.L43:
 982:Drivers/STM32F1xx_HAL_Driver/Src/stm32f1xx_hal_spi.c ****   }
 983:Drivers/STM32F1xx_HAL_Driver/Src/stm32f1xx_hal_spi.c **** 
 984:Drivers/STM32F1xx_HAL_Driver/Src/stm32f1xx_hal_spi.c ****   /* Process Locked */
 985:Drivers/STM32F1xx_HAL_Driver/Src/stm32f1xx_hal_spi.c ****   __HAL_LOCK(hspi);
 888              		.loc 1 985 3
 889 0056 FB68     		ldr	r3, [r7, #12]
 890 0058 93F85030 		ldrb	r3, [r3, #80]	@ zero_extendqisi2
 891 005c 012B     		cmp	r3, #1
 892 005e 01D1     		bne	.L45
 893              		.loc 1 985 3 is_stmt 0 discriminator 1
 894 0060 0223     		movs	r3, #2
 895 0062 E1E0     		b	.L44
 896              	.L45:
 897              		.loc 1 985 3 discriminator 2
 898 0064 FB68     		ldr	r3, [r7, #12]
 899 0066 0122     		movs	r2, #1
 900 0068 83F85020 		strb	r2, [r3, #80]
 986:Drivers/STM32F1xx_HAL_Driver/Src/stm32f1xx_hal_spi.c **** 
 987:Drivers/STM32F1xx_HAL_Driver/Src/stm32f1xx_hal_spi.c ****   /* Init tickstart for timeout management*/
 988:Drivers/STM32F1xx_HAL_Driver/Src/stm32f1xx_hal_spi.c ****   tickstart = HAL_GetTick();
ARM GAS  C:\Users\Matvey\AppData\Local\Temp\ccf8E5QD.s 			page 34


 901              		.loc 1 988 15 is_stmt 1 discriminator 2
 902 006c FFF7FEFF 		bl	HAL_GetTick
 903 0070 3861     		str	r0, [r7, #16]
 989:Drivers/STM32F1xx_HAL_Driver/Src/stm32f1xx_hal_spi.c **** 
 990:Drivers/STM32F1xx_HAL_Driver/Src/stm32f1xx_hal_spi.c ****   if ((pData == NULL) || (Size == 0U))
 904              		.loc 1 990 6 discriminator 2
 905 0072 BB68     		ldr	r3, [r7, #8]
 906 0074 002B     		cmp	r3, #0
 907 0076 02D0     		beq	.L46
 908              		.loc 1 990 23 discriminator 1
 909 0078 FB88     		ldrh	r3, [r7, #6]
 910 007a 002B     		cmp	r3, #0
 911 007c 02D1     		bne	.L47
 912              	.L46:
 991:Drivers/STM32F1xx_HAL_Driver/Src/stm32f1xx_hal_spi.c ****   {
 992:Drivers/STM32F1xx_HAL_Driver/Src/stm32f1xx_hal_spi.c ****     errorcode = HAL_ERROR;
 913              		.loc 1 992 15
 914 007e 0123     		movs	r3, #1
 915 0080 FB75     		strb	r3, [r7, #23]
 993:Drivers/STM32F1xx_HAL_Driver/Src/stm32f1xx_hal_spi.c ****     goto error;
 916              		.loc 1 993 5
 917 0082 CCE0     		b	.L42
 918              	.L47:
 994:Drivers/STM32F1xx_HAL_Driver/Src/stm32f1xx_hal_spi.c ****   }
 995:Drivers/STM32F1xx_HAL_Driver/Src/stm32f1xx_hal_spi.c **** 
 996:Drivers/STM32F1xx_HAL_Driver/Src/stm32f1xx_hal_spi.c ****   /* Set the transaction information */
 997:Drivers/STM32F1xx_HAL_Driver/Src/stm32f1xx_hal_spi.c ****   hspi->State       = HAL_SPI_STATE_BUSY_RX;
 919              		.loc 1 997 21
 920 0084 FB68     		ldr	r3, [r7, #12]
 921 0086 0422     		movs	r2, #4
 922 0088 83F85120 		strb	r2, [r3, #81]
 998:Drivers/STM32F1xx_HAL_Driver/Src/stm32f1xx_hal_spi.c ****   hspi->ErrorCode   = HAL_SPI_ERROR_NONE;
 923              		.loc 1 998 21
 924 008c FB68     		ldr	r3, [r7, #12]
 925 008e 0022     		movs	r2, #0
 926 0090 5A65     		str	r2, [r3, #84]
 999:Drivers/STM32F1xx_HAL_Driver/Src/stm32f1xx_hal_spi.c ****   hspi->pRxBuffPtr  = (uint8_t *)pData;
 927              		.loc 1 999 21
 928 0092 FB68     		ldr	r3, [r7, #12]
 929 0094 BA68     		ldr	r2, [r7, #8]
 930 0096 9A63     		str	r2, [r3, #56]
1000:Drivers/STM32F1xx_HAL_Driver/Src/stm32f1xx_hal_spi.c ****   hspi->RxXferSize  = Size;
 931              		.loc 1 1000 21
 932 0098 FB68     		ldr	r3, [r7, #12]
 933 009a FA88     		ldrh	r2, [r7, #6]	@ movhi
 934 009c 9A87     		strh	r2, [r3, #60]	@ movhi
1001:Drivers/STM32F1xx_HAL_Driver/Src/stm32f1xx_hal_spi.c ****   hspi->RxXferCount = Size;
 935              		.loc 1 1001 21
 936 009e FB68     		ldr	r3, [r7, #12]
 937 00a0 FA88     		ldrh	r2, [r7, #6]	@ movhi
 938 00a2 DA87     		strh	r2, [r3, #62]	@ movhi
1002:Drivers/STM32F1xx_HAL_Driver/Src/stm32f1xx_hal_spi.c **** 
1003:Drivers/STM32F1xx_HAL_Driver/Src/stm32f1xx_hal_spi.c ****   /*Init field not used in handle to zero */
1004:Drivers/STM32F1xx_HAL_Driver/Src/stm32f1xx_hal_spi.c ****   hspi->pTxBuffPtr  = (uint8_t *)NULL;
 939              		.loc 1 1004 21
 940 00a4 FB68     		ldr	r3, [r7, #12]
 941 00a6 0022     		movs	r2, #0
ARM GAS  C:\Users\Matvey\AppData\Local\Temp\ccf8E5QD.s 			page 35


 942 00a8 1A63     		str	r2, [r3, #48]
1005:Drivers/STM32F1xx_HAL_Driver/Src/stm32f1xx_hal_spi.c ****   hspi->TxXferSize  = 0U;
 943              		.loc 1 1005 21
 944 00aa FB68     		ldr	r3, [r7, #12]
 945 00ac 0022     		movs	r2, #0
 946 00ae 9A86     		strh	r2, [r3, #52]	@ movhi
1006:Drivers/STM32F1xx_HAL_Driver/Src/stm32f1xx_hal_spi.c ****   hspi->TxXferCount = 0U;
 947              		.loc 1 1006 21
 948 00b0 FB68     		ldr	r3, [r7, #12]
 949 00b2 0022     		movs	r2, #0
 950 00b4 DA86     		strh	r2, [r3, #54]	@ movhi
1007:Drivers/STM32F1xx_HAL_Driver/Src/stm32f1xx_hal_spi.c ****   hspi->RxISR       = NULL;
 951              		.loc 1 1007 21
 952 00b6 FB68     		ldr	r3, [r7, #12]
 953 00b8 0022     		movs	r2, #0
 954 00ba 1A64     		str	r2, [r3, #64]
1008:Drivers/STM32F1xx_HAL_Driver/Src/stm32f1xx_hal_spi.c ****   hspi->TxISR       = NULL;
 955              		.loc 1 1008 21
 956 00bc FB68     		ldr	r3, [r7, #12]
 957 00be 0022     		movs	r2, #0
 958 00c0 5A64     		str	r2, [r3, #68]
1009:Drivers/STM32F1xx_HAL_Driver/Src/stm32f1xx_hal_spi.c **** 
1010:Drivers/STM32F1xx_HAL_Driver/Src/stm32f1xx_hal_spi.c **** #if (USE_SPI_CRC != 0U)
1011:Drivers/STM32F1xx_HAL_Driver/Src/stm32f1xx_hal_spi.c ****   /* Reset CRC Calculation */
1012:Drivers/STM32F1xx_HAL_Driver/Src/stm32f1xx_hal_spi.c ****   if (hspi->Init.CRCCalculation == SPI_CRCCALCULATION_ENABLE)
1013:Drivers/STM32F1xx_HAL_Driver/Src/stm32f1xx_hal_spi.c ****   {
1014:Drivers/STM32F1xx_HAL_Driver/Src/stm32f1xx_hal_spi.c ****     SPI_RESET_CRC(hspi);
1015:Drivers/STM32F1xx_HAL_Driver/Src/stm32f1xx_hal_spi.c ****     /* this is done to handle the CRCNEXT before the latest data */
1016:Drivers/STM32F1xx_HAL_Driver/Src/stm32f1xx_hal_spi.c ****     hspi->RxXferCount--;
1017:Drivers/STM32F1xx_HAL_Driver/Src/stm32f1xx_hal_spi.c ****   }
1018:Drivers/STM32F1xx_HAL_Driver/Src/stm32f1xx_hal_spi.c **** #endif /* USE_SPI_CRC */
1019:Drivers/STM32F1xx_HAL_Driver/Src/stm32f1xx_hal_spi.c **** 
1020:Drivers/STM32F1xx_HAL_Driver/Src/stm32f1xx_hal_spi.c ****   /* Configure communication direction: 1Line */
1021:Drivers/STM32F1xx_HAL_Driver/Src/stm32f1xx_hal_spi.c ****   if (hspi->Init.Direction == SPI_DIRECTION_1LINE)
 959              		.loc 1 1021 17
 960 00c2 FB68     		ldr	r3, [r7, #12]
 961 00c4 9B68     		ldr	r3, [r3, #8]
 962              		.loc 1 1021 6
 963 00c6 B3F5004F 		cmp	r3, #32768
 964 00ca 0FD1     		bne	.L48
1022:Drivers/STM32F1xx_HAL_Driver/Src/stm32f1xx_hal_spi.c ****   {
1023:Drivers/STM32F1xx_HAL_Driver/Src/stm32f1xx_hal_spi.c ****     /* Disable SPI Peripheral before set 1Line direction (BIDIOE bit) */
1024:Drivers/STM32F1xx_HAL_Driver/Src/stm32f1xx_hal_spi.c ****     __HAL_SPI_DISABLE(hspi);
 965              		.loc 1 1024 5
 966 00cc FB68     		ldr	r3, [r7, #12]
 967 00ce 1B68     		ldr	r3, [r3]
 968 00d0 1A68     		ldr	r2, [r3]
 969 00d2 FB68     		ldr	r3, [r7, #12]
 970 00d4 1B68     		ldr	r3, [r3]
 971 00d6 22F04002 		bic	r2, r2, #64
 972 00da 1A60     		str	r2, [r3]
1025:Drivers/STM32F1xx_HAL_Driver/Src/stm32f1xx_hal_spi.c ****     SPI_1LINE_RX(hspi);
 973              		.loc 1 1025 5
 974 00dc FB68     		ldr	r3, [r7, #12]
 975 00de 1B68     		ldr	r3, [r3]
 976 00e0 1A68     		ldr	r2, [r3]
 977 00e2 FB68     		ldr	r3, [r7, #12]
ARM GAS  C:\Users\Matvey\AppData\Local\Temp\ccf8E5QD.s 			page 36


 978 00e4 1B68     		ldr	r3, [r3]
 979 00e6 22F48042 		bic	r2, r2, #16384
 980 00ea 1A60     		str	r2, [r3]
 981              	.L48:
1026:Drivers/STM32F1xx_HAL_Driver/Src/stm32f1xx_hal_spi.c ****   }
1027:Drivers/STM32F1xx_HAL_Driver/Src/stm32f1xx_hal_spi.c **** 
1028:Drivers/STM32F1xx_HAL_Driver/Src/stm32f1xx_hal_spi.c ****   /* Check if the SPI is already enabled */
1029:Drivers/STM32F1xx_HAL_Driver/Src/stm32f1xx_hal_spi.c ****   if ((hspi->Instance->CR1 & SPI_CR1_SPE) != SPI_CR1_SPE)
 982              		.loc 1 1029 12
 983 00ec FB68     		ldr	r3, [r7, #12]
 984 00ee 1B68     		ldr	r3, [r3]
 985              		.loc 1 1029 22
 986 00f0 1B68     		ldr	r3, [r3]
 987              		.loc 1 1029 28
 988 00f2 03F04003 		and	r3, r3, #64
 989              		.loc 1 1029 6
 990 00f6 402B     		cmp	r3, #64
 991 00f8 07D0     		beq	.L49
1030:Drivers/STM32F1xx_HAL_Driver/Src/stm32f1xx_hal_spi.c ****   {
1031:Drivers/STM32F1xx_HAL_Driver/Src/stm32f1xx_hal_spi.c ****     /* Enable SPI peripheral */
1032:Drivers/STM32F1xx_HAL_Driver/Src/stm32f1xx_hal_spi.c ****     __HAL_SPI_ENABLE(hspi);
 992              		.loc 1 1032 5
 993 00fa FB68     		ldr	r3, [r7, #12]
 994 00fc 1B68     		ldr	r3, [r3]
 995 00fe 1A68     		ldr	r2, [r3]
 996 0100 FB68     		ldr	r3, [r7, #12]
 997 0102 1B68     		ldr	r3, [r3]
 998 0104 42F04002 		orr	r2, r2, #64
 999 0108 1A60     		str	r2, [r3]
 1000              	.L49:
1033:Drivers/STM32F1xx_HAL_Driver/Src/stm32f1xx_hal_spi.c ****   }
1034:Drivers/STM32F1xx_HAL_Driver/Src/stm32f1xx_hal_spi.c **** 
1035:Drivers/STM32F1xx_HAL_Driver/Src/stm32f1xx_hal_spi.c ****   /* Receive data in 8 Bit mode */
1036:Drivers/STM32F1xx_HAL_Driver/Src/stm32f1xx_hal_spi.c ****   if (hspi->Init.DataSize == SPI_DATASIZE_8BIT)
 1001              		.loc 1 1036 17
 1002 010a FB68     		ldr	r3, [r7, #12]
 1003 010c DB68     		ldr	r3, [r3, #12]
 1004              		.loc 1 1036 6
 1005 010e 002B     		cmp	r3, #0
 1006 0110 6AD1     		bne	.L57
1037:Drivers/STM32F1xx_HAL_Driver/Src/stm32f1xx_hal_spi.c ****   {
1038:Drivers/STM32F1xx_HAL_Driver/Src/stm32f1xx_hal_spi.c ****     /* Transfer loop */
1039:Drivers/STM32F1xx_HAL_Driver/Src/stm32f1xx_hal_spi.c ****     while (hspi->RxXferCount > 0U)
 1007              		.loc 1 1039 11
 1008 0112 32E0     		b	.L51
 1009              	.L55:
1040:Drivers/STM32F1xx_HAL_Driver/Src/stm32f1xx_hal_spi.c ****     {
1041:Drivers/STM32F1xx_HAL_Driver/Src/stm32f1xx_hal_spi.c ****       /* Check the RXNE flag */
1042:Drivers/STM32F1xx_HAL_Driver/Src/stm32f1xx_hal_spi.c ****       if (__HAL_SPI_GET_FLAG(hspi, SPI_FLAG_RXNE))
 1010              		.loc 1 1042 11
 1011 0114 FB68     		ldr	r3, [r7, #12]
 1012 0116 1B68     		ldr	r3, [r3]
 1013 0118 9B68     		ldr	r3, [r3, #8]
 1014 011a 03F00103 		and	r3, r3, #1
 1015              		.loc 1 1042 10
 1016 011e 012B     		cmp	r3, #1
 1017 0120 15D1     		bne	.L52
ARM GAS  C:\Users\Matvey\AppData\Local\Temp\ccf8E5QD.s 			page 37


1043:Drivers/STM32F1xx_HAL_Driver/Src/stm32f1xx_hal_spi.c ****       {
1044:Drivers/STM32F1xx_HAL_Driver/Src/stm32f1xx_hal_spi.c ****         /* read the received data */
1045:Drivers/STM32F1xx_HAL_Driver/Src/stm32f1xx_hal_spi.c ****         (* (uint8_t *)hspi->pRxBuffPtr) = *(__IO uint8_t *)&hspi->Instance->DR;
 1018              		.loc 1 1045 65
 1019 0122 FB68     		ldr	r3, [r7, #12]
 1020 0124 1B68     		ldr	r3, [r3]
 1021              		.loc 1 1045 60
 1022 0126 03F10C02 		add	r2, r3, #12
 1023              		.loc 1 1045 27
 1024 012a FB68     		ldr	r3, [r7, #12]
 1025 012c 9B6B     		ldr	r3, [r3, #56]
 1026              		.loc 1 1045 43
 1027 012e 1278     		ldrb	r2, [r2]
 1028 0130 D2B2     		uxtb	r2, r2
 1029              		.loc 1 1045 41
 1030 0132 1A70     		strb	r2, [r3]
1046:Drivers/STM32F1xx_HAL_Driver/Src/stm32f1xx_hal_spi.c ****         hspi->pRxBuffPtr += sizeof(uint8_t);
 1031              		.loc 1 1046 26
 1032 0134 FB68     		ldr	r3, [r7, #12]
 1033 0136 9B6B     		ldr	r3, [r3, #56]
 1034 0138 5A1C     		adds	r2, r3, #1
 1035 013a FB68     		ldr	r3, [r7, #12]
 1036 013c 9A63     		str	r2, [r3, #56]
1047:Drivers/STM32F1xx_HAL_Driver/Src/stm32f1xx_hal_spi.c ****         hspi->RxXferCount--;
 1037              		.loc 1 1047 13
 1038 013e FB68     		ldr	r3, [r7, #12]
 1039 0140 DB8F     		ldrh	r3, [r3, #62]	@ movhi
 1040 0142 9BB2     		uxth	r3, r3
 1041              		.loc 1 1047 26
 1042 0144 013B     		subs	r3, r3, #1
 1043 0146 9AB2     		uxth	r2, r3
 1044 0148 FB68     		ldr	r3, [r7, #12]
 1045 014a DA87     		strh	r2, [r3, #62]	@ movhi
 1046 014c 15E0     		b	.L51
 1047              	.L52:
1048:Drivers/STM32F1xx_HAL_Driver/Src/stm32f1xx_hal_spi.c ****       }
1049:Drivers/STM32F1xx_HAL_Driver/Src/stm32f1xx_hal_spi.c ****       else
1050:Drivers/STM32F1xx_HAL_Driver/Src/stm32f1xx_hal_spi.c ****       {
1051:Drivers/STM32F1xx_HAL_Driver/Src/stm32f1xx_hal_spi.c ****         /* Timeout management */
1052:Drivers/STM32F1xx_HAL_Driver/Src/stm32f1xx_hal_spi.c ****         if ((((HAL_GetTick() - tickstart) >=  Timeout) && (Timeout != HAL_MAX_DELAY)) || (Timeout =
 1048              		.loc 1 1052 16
 1049 014e FFF7FEFF 		bl	HAL_GetTick
 1050 0152 0246     		mov	r2, r0
 1051              		.loc 1 1052 30
 1052 0154 3B69     		ldr	r3, [r7, #16]
 1053 0156 D31A     		subs	r3, r2, r3
 1054              		.loc 1 1052 12
 1055 0158 3A68     		ldr	r2, [r7]
 1056 015a 9A42     		cmp	r2, r3
 1057 015c 03D8     		bhi	.L53
 1058              		.loc 1 1052 56 discriminator 1
 1059 015e 3B68     		ldr	r3, [r7]
 1060 0160 B3F1FF3F 		cmp	r3, #-1
 1061 0164 02D1     		bne	.L54
 1062              	.L53:
 1063              		.loc 1 1052 87 discriminator 3
 1064 0166 3B68     		ldr	r3, [r7]
ARM GAS  C:\Users\Matvey\AppData\Local\Temp\ccf8E5QD.s 			page 38


 1065 0168 002B     		cmp	r3, #0
 1066 016a 06D1     		bne	.L51
 1067              	.L54:
1053:Drivers/STM32F1xx_HAL_Driver/Src/stm32f1xx_hal_spi.c ****         {
1054:Drivers/STM32F1xx_HAL_Driver/Src/stm32f1xx_hal_spi.c ****           errorcode = HAL_TIMEOUT;
 1068              		.loc 1 1054 21
 1069 016c 0323     		movs	r3, #3
 1070 016e FB75     		strb	r3, [r7, #23]
1055:Drivers/STM32F1xx_HAL_Driver/Src/stm32f1xx_hal_spi.c ****           hspi->State = HAL_SPI_STATE_READY;
 1071              		.loc 1 1055 23
 1072 0170 FB68     		ldr	r3, [r7, #12]
 1073 0172 0122     		movs	r2, #1
 1074 0174 83F85120 		strb	r2, [r3, #81]
1056:Drivers/STM32F1xx_HAL_Driver/Src/stm32f1xx_hal_spi.c ****           goto error;
 1075              		.loc 1 1056 11
 1076 0178 51E0     		b	.L42
 1077              	.L51:
1039:Drivers/STM32F1xx_HAL_Driver/Src/stm32f1xx_hal_spi.c ****     {
 1078              		.loc 1 1039 16
 1079 017a FB68     		ldr	r3, [r7, #12]
 1080 017c DB8F     		ldrh	r3, [r3, #62]	@ movhi
 1081 017e 9BB2     		uxth	r3, r3
1039:Drivers/STM32F1xx_HAL_Driver/Src/stm32f1xx_hal_spi.c ****     {
 1082              		.loc 1 1039 11
 1083 0180 002B     		cmp	r3, #0
 1084 0182 C7D1     		bne	.L55
 1085 0184 35E0     		b	.L56
 1086              	.L61:
1057:Drivers/STM32F1xx_HAL_Driver/Src/stm32f1xx_hal_spi.c ****         }
1058:Drivers/STM32F1xx_HAL_Driver/Src/stm32f1xx_hal_spi.c ****       }
1059:Drivers/STM32F1xx_HAL_Driver/Src/stm32f1xx_hal_spi.c ****     }
1060:Drivers/STM32F1xx_HAL_Driver/Src/stm32f1xx_hal_spi.c ****   }
1061:Drivers/STM32F1xx_HAL_Driver/Src/stm32f1xx_hal_spi.c ****   else
1062:Drivers/STM32F1xx_HAL_Driver/Src/stm32f1xx_hal_spi.c ****   {
1063:Drivers/STM32F1xx_HAL_Driver/Src/stm32f1xx_hal_spi.c ****     /* Transfer loop */
1064:Drivers/STM32F1xx_HAL_Driver/Src/stm32f1xx_hal_spi.c ****     while (hspi->RxXferCount > 0U)
1065:Drivers/STM32F1xx_HAL_Driver/Src/stm32f1xx_hal_spi.c ****     {
1066:Drivers/STM32F1xx_HAL_Driver/Src/stm32f1xx_hal_spi.c ****       /* Check the RXNE flag */
1067:Drivers/STM32F1xx_HAL_Driver/Src/stm32f1xx_hal_spi.c ****       if (__HAL_SPI_GET_FLAG(hspi, SPI_FLAG_RXNE))
 1087              		.loc 1 1067 11
 1088 0186 FB68     		ldr	r3, [r7, #12]
 1089 0188 1B68     		ldr	r3, [r3]
 1090 018a 9B68     		ldr	r3, [r3, #8]
 1091 018c 03F00103 		and	r3, r3, #1
 1092              		.loc 1 1067 10
 1093 0190 012B     		cmp	r3, #1
 1094 0192 13D1     		bne	.L58
1068:Drivers/STM32F1xx_HAL_Driver/Src/stm32f1xx_hal_spi.c ****       {
1069:Drivers/STM32F1xx_HAL_Driver/Src/stm32f1xx_hal_spi.c ****         *((uint16_t *)hspi->pRxBuffPtr) = (uint16_t)hspi->Instance->DR;
 1095              		.loc 1 1069 57
 1096 0194 FB68     		ldr	r3, [r7, #12]
 1097 0196 1B68     		ldr	r3, [r3]
 1098              		.loc 1 1069 67
 1099 0198 DA68     		ldr	r2, [r3, #12]
 1100              		.loc 1 1069 27
 1101 019a FB68     		ldr	r3, [r7, #12]
 1102 019c 9B6B     		ldr	r3, [r3, #56]
ARM GAS  C:\Users\Matvey\AppData\Local\Temp\ccf8E5QD.s 			page 39


 1103              		.loc 1 1069 43
 1104 019e 92B2     		uxth	r2, r2
 1105              		.loc 1 1069 41
 1106 01a0 1A80     		strh	r2, [r3]	@ movhi
1070:Drivers/STM32F1xx_HAL_Driver/Src/stm32f1xx_hal_spi.c ****         hspi->pRxBuffPtr += sizeof(uint16_t);
 1107              		.loc 1 1070 26
 1108 01a2 FB68     		ldr	r3, [r7, #12]
 1109 01a4 9B6B     		ldr	r3, [r3, #56]
 1110 01a6 9A1C     		adds	r2, r3, #2
 1111 01a8 FB68     		ldr	r3, [r7, #12]
 1112 01aa 9A63     		str	r2, [r3, #56]
1071:Drivers/STM32F1xx_HAL_Driver/Src/stm32f1xx_hal_spi.c ****         hspi->RxXferCount--;
 1113              		.loc 1 1071 13
 1114 01ac FB68     		ldr	r3, [r7, #12]
 1115 01ae DB8F     		ldrh	r3, [r3, #62]	@ movhi
 1116 01b0 9BB2     		uxth	r3, r3
 1117              		.loc 1 1071 26
 1118 01b2 013B     		subs	r3, r3, #1
 1119 01b4 9AB2     		uxth	r2, r3
 1120 01b6 FB68     		ldr	r3, [r7, #12]
 1121 01b8 DA87     		strh	r2, [r3, #62]	@ movhi
 1122 01ba 15E0     		b	.L57
 1123              	.L58:
1072:Drivers/STM32F1xx_HAL_Driver/Src/stm32f1xx_hal_spi.c ****       }
1073:Drivers/STM32F1xx_HAL_Driver/Src/stm32f1xx_hal_spi.c ****       else
1074:Drivers/STM32F1xx_HAL_Driver/Src/stm32f1xx_hal_spi.c ****       {
1075:Drivers/STM32F1xx_HAL_Driver/Src/stm32f1xx_hal_spi.c ****         /* Timeout management */
1076:Drivers/STM32F1xx_HAL_Driver/Src/stm32f1xx_hal_spi.c ****         if ((((HAL_GetTick() - tickstart) >=  Timeout) && (Timeout != HAL_MAX_DELAY)) || (Timeout =
 1124              		.loc 1 1076 16
 1125 01bc FFF7FEFF 		bl	HAL_GetTick
 1126 01c0 0246     		mov	r2, r0
 1127              		.loc 1 1076 30
 1128 01c2 3B69     		ldr	r3, [r7, #16]
 1129 01c4 D31A     		subs	r3, r2, r3
 1130              		.loc 1 1076 12
 1131 01c6 3A68     		ldr	r2, [r7]
 1132 01c8 9A42     		cmp	r2, r3
 1133 01ca 03D8     		bhi	.L59
 1134              		.loc 1 1076 56 discriminator 1
 1135 01cc 3B68     		ldr	r3, [r7]
 1136 01ce B3F1FF3F 		cmp	r3, #-1
 1137 01d2 02D1     		bne	.L60
 1138              	.L59:
 1139              		.loc 1 1076 87 discriminator 3
 1140 01d4 3B68     		ldr	r3, [r7]
 1141 01d6 002B     		cmp	r3, #0
 1142 01d8 06D1     		bne	.L57
 1143              	.L60:
1077:Drivers/STM32F1xx_HAL_Driver/Src/stm32f1xx_hal_spi.c ****         {
1078:Drivers/STM32F1xx_HAL_Driver/Src/stm32f1xx_hal_spi.c ****           errorcode = HAL_TIMEOUT;
 1144              		.loc 1 1078 21
 1145 01da 0323     		movs	r3, #3
 1146 01dc FB75     		strb	r3, [r7, #23]
1079:Drivers/STM32F1xx_HAL_Driver/Src/stm32f1xx_hal_spi.c ****           hspi->State = HAL_SPI_STATE_READY;
 1147              		.loc 1 1079 23
 1148 01de FB68     		ldr	r3, [r7, #12]
 1149 01e0 0122     		movs	r2, #1
ARM GAS  C:\Users\Matvey\AppData\Local\Temp\ccf8E5QD.s 			page 40


 1150 01e2 83F85120 		strb	r2, [r3, #81]
1080:Drivers/STM32F1xx_HAL_Driver/Src/stm32f1xx_hal_spi.c ****           goto error;
 1151              		.loc 1 1080 11
 1152 01e6 1AE0     		b	.L42
 1153              	.L57:
1064:Drivers/STM32F1xx_HAL_Driver/Src/stm32f1xx_hal_spi.c ****     {
 1154              		.loc 1 1064 16
 1155 01e8 FB68     		ldr	r3, [r7, #12]
 1156 01ea DB8F     		ldrh	r3, [r3, #62]	@ movhi
 1157 01ec 9BB2     		uxth	r3, r3
1064:Drivers/STM32F1xx_HAL_Driver/Src/stm32f1xx_hal_spi.c ****     {
 1158              		.loc 1 1064 11
 1159 01ee 002B     		cmp	r3, #0
 1160 01f0 C9D1     		bne	.L61
 1161              	.L56:
1081:Drivers/STM32F1xx_HAL_Driver/Src/stm32f1xx_hal_spi.c ****         }
1082:Drivers/STM32F1xx_HAL_Driver/Src/stm32f1xx_hal_spi.c ****       }
1083:Drivers/STM32F1xx_HAL_Driver/Src/stm32f1xx_hal_spi.c ****     }
1084:Drivers/STM32F1xx_HAL_Driver/Src/stm32f1xx_hal_spi.c ****   }
1085:Drivers/STM32F1xx_HAL_Driver/Src/stm32f1xx_hal_spi.c **** 
1086:Drivers/STM32F1xx_HAL_Driver/Src/stm32f1xx_hal_spi.c **** #if (USE_SPI_CRC != 0U)
1087:Drivers/STM32F1xx_HAL_Driver/Src/stm32f1xx_hal_spi.c ****   /* Handle the CRC Transmission */
1088:Drivers/STM32F1xx_HAL_Driver/Src/stm32f1xx_hal_spi.c ****   if (hspi->Init.CRCCalculation == SPI_CRCCALCULATION_ENABLE)
1089:Drivers/STM32F1xx_HAL_Driver/Src/stm32f1xx_hal_spi.c ****   {
1090:Drivers/STM32F1xx_HAL_Driver/Src/stm32f1xx_hal_spi.c ****     /* freeze the CRC before the latest data */
1091:Drivers/STM32F1xx_HAL_Driver/Src/stm32f1xx_hal_spi.c ****     SET_BIT(hspi->Instance->CR1, SPI_CR1_CRCNEXT);
1092:Drivers/STM32F1xx_HAL_Driver/Src/stm32f1xx_hal_spi.c **** 
1093:Drivers/STM32F1xx_HAL_Driver/Src/stm32f1xx_hal_spi.c ****     /* Check if CRCNEXT is well reset by hardware */
1094:Drivers/STM32F1xx_HAL_Driver/Src/stm32f1xx_hal_spi.c ****     if (READ_BIT(hspi->Instance->CR1, SPI_CR1_CRCNEXT))
1095:Drivers/STM32F1xx_HAL_Driver/Src/stm32f1xx_hal_spi.c ****     {
1096:Drivers/STM32F1xx_HAL_Driver/Src/stm32f1xx_hal_spi.c ****       /* Workaround to force CRCNEXT bit to zero in case of CRCNEXT is not reset automatically by h
1097:Drivers/STM32F1xx_HAL_Driver/Src/stm32f1xx_hal_spi.c ****       CLEAR_BIT(hspi->Instance->CR1, SPI_CR1_CRCNEXT);
1098:Drivers/STM32F1xx_HAL_Driver/Src/stm32f1xx_hal_spi.c ****     }
1099:Drivers/STM32F1xx_HAL_Driver/Src/stm32f1xx_hal_spi.c ****     /* Read the latest data */
1100:Drivers/STM32F1xx_HAL_Driver/Src/stm32f1xx_hal_spi.c ****     if (SPI_WaitFlagStateUntilTimeout(hspi, SPI_FLAG_RXNE, SET, Timeout, tickstart) != HAL_OK)
1101:Drivers/STM32F1xx_HAL_Driver/Src/stm32f1xx_hal_spi.c ****     {
1102:Drivers/STM32F1xx_HAL_Driver/Src/stm32f1xx_hal_spi.c ****       /* the latest data has not been received */
1103:Drivers/STM32F1xx_HAL_Driver/Src/stm32f1xx_hal_spi.c ****       errorcode = HAL_TIMEOUT;
1104:Drivers/STM32F1xx_HAL_Driver/Src/stm32f1xx_hal_spi.c ****       goto error;
1105:Drivers/STM32F1xx_HAL_Driver/Src/stm32f1xx_hal_spi.c ****     }
1106:Drivers/STM32F1xx_HAL_Driver/Src/stm32f1xx_hal_spi.c **** 
1107:Drivers/STM32F1xx_HAL_Driver/Src/stm32f1xx_hal_spi.c ****     /* Receive last data in 16 Bit mode */
1108:Drivers/STM32F1xx_HAL_Driver/Src/stm32f1xx_hal_spi.c ****     if (hspi->Init.DataSize == SPI_DATASIZE_16BIT)
1109:Drivers/STM32F1xx_HAL_Driver/Src/stm32f1xx_hal_spi.c ****     {
1110:Drivers/STM32F1xx_HAL_Driver/Src/stm32f1xx_hal_spi.c ****       *((uint16_t *)hspi->pRxBuffPtr) = (uint16_t)hspi->Instance->DR;
1111:Drivers/STM32F1xx_HAL_Driver/Src/stm32f1xx_hal_spi.c ****     }
1112:Drivers/STM32F1xx_HAL_Driver/Src/stm32f1xx_hal_spi.c ****     /* Receive last data in 8 Bit mode */
1113:Drivers/STM32F1xx_HAL_Driver/Src/stm32f1xx_hal_spi.c ****     else
1114:Drivers/STM32F1xx_HAL_Driver/Src/stm32f1xx_hal_spi.c ****     {
1115:Drivers/STM32F1xx_HAL_Driver/Src/stm32f1xx_hal_spi.c ****       (*(uint8_t *)hspi->pRxBuffPtr) = *(__IO uint8_t *)&hspi->Instance->DR;
1116:Drivers/STM32F1xx_HAL_Driver/Src/stm32f1xx_hal_spi.c ****     }
1117:Drivers/STM32F1xx_HAL_Driver/Src/stm32f1xx_hal_spi.c **** 
1118:Drivers/STM32F1xx_HAL_Driver/Src/stm32f1xx_hal_spi.c ****     /* Wait the CRC data */
1119:Drivers/STM32F1xx_HAL_Driver/Src/stm32f1xx_hal_spi.c ****     if (SPI_WaitFlagStateUntilTimeout(hspi, SPI_FLAG_RXNE, SET, Timeout, tickstart) != HAL_OK)
1120:Drivers/STM32F1xx_HAL_Driver/Src/stm32f1xx_hal_spi.c ****     {
1121:Drivers/STM32F1xx_HAL_Driver/Src/stm32f1xx_hal_spi.c ****       SET_BIT(hspi->ErrorCode, HAL_SPI_ERROR_CRC);
1122:Drivers/STM32F1xx_HAL_Driver/Src/stm32f1xx_hal_spi.c ****       errorcode = HAL_TIMEOUT;
ARM GAS  C:\Users\Matvey\AppData\Local\Temp\ccf8E5QD.s 			page 41


1123:Drivers/STM32F1xx_HAL_Driver/Src/stm32f1xx_hal_spi.c ****       goto error;
1124:Drivers/STM32F1xx_HAL_Driver/Src/stm32f1xx_hal_spi.c ****     }
1125:Drivers/STM32F1xx_HAL_Driver/Src/stm32f1xx_hal_spi.c **** 
1126:Drivers/STM32F1xx_HAL_Driver/Src/stm32f1xx_hal_spi.c ****     /* Read CRC to Flush DR and RXNE flag */
1127:Drivers/STM32F1xx_HAL_Driver/Src/stm32f1xx_hal_spi.c ****     tmpreg = READ_REG(hspi->Instance->DR);
1128:Drivers/STM32F1xx_HAL_Driver/Src/stm32f1xx_hal_spi.c ****     /* To avoid GCC warning */
1129:Drivers/STM32F1xx_HAL_Driver/Src/stm32f1xx_hal_spi.c ****     UNUSED(tmpreg);
1130:Drivers/STM32F1xx_HAL_Driver/Src/stm32f1xx_hal_spi.c ****   }
1131:Drivers/STM32F1xx_HAL_Driver/Src/stm32f1xx_hal_spi.c **** #endif /* USE_SPI_CRC */
1132:Drivers/STM32F1xx_HAL_Driver/Src/stm32f1xx_hal_spi.c **** 
1133:Drivers/STM32F1xx_HAL_Driver/Src/stm32f1xx_hal_spi.c ****   /* Check the end of the transaction */
1134:Drivers/STM32F1xx_HAL_Driver/Src/stm32f1xx_hal_spi.c ****   if (SPI_EndRxTransaction(hspi, Timeout, tickstart) != HAL_OK)
 1162              		.loc 1 1134 7
 1163 01f2 3A69     		ldr	r2, [r7, #16]
 1164 01f4 3968     		ldr	r1, [r7]
 1165 01f6 F868     		ldr	r0, [r7, #12]
 1166 01f8 FFF7FEFF 		bl	SPI_EndRxTransaction
 1167 01fc 0346     		mov	r3, r0
 1168              		.loc 1 1134 6
 1169 01fe 002B     		cmp	r3, #0
 1170 0200 02D0     		beq	.L62
1135:Drivers/STM32F1xx_HAL_Driver/Src/stm32f1xx_hal_spi.c ****   {
1136:Drivers/STM32F1xx_HAL_Driver/Src/stm32f1xx_hal_spi.c ****     hspi->ErrorCode = HAL_SPI_ERROR_FLAG;
 1171              		.loc 1 1136 21
 1172 0202 FB68     		ldr	r3, [r7, #12]
 1173 0204 2022     		movs	r2, #32
 1174 0206 5A65     		str	r2, [r3, #84]
 1175              	.L62:
1137:Drivers/STM32F1xx_HAL_Driver/Src/stm32f1xx_hal_spi.c ****   }
1138:Drivers/STM32F1xx_HAL_Driver/Src/stm32f1xx_hal_spi.c **** 
1139:Drivers/STM32F1xx_HAL_Driver/Src/stm32f1xx_hal_spi.c **** #if (USE_SPI_CRC != 0U)
1140:Drivers/STM32F1xx_HAL_Driver/Src/stm32f1xx_hal_spi.c ****   /* Check if CRC error occurred */
1141:Drivers/STM32F1xx_HAL_Driver/Src/stm32f1xx_hal_spi.c ****   if (__HAL_SPI_GET_FLAG(hspi, SPI_FLAG_CRCERR) != RESET)
1142:Drivers/STM32F1xx_HAL_Driver/Src/stm32f1xx_hal_spi.c ****   {
1143:Drivers/STM32F1xx_HAL_Driver/Src/stm32f1xx_hal_spi.c ****     /* Check if CRC error is valid or not (workaround to be applied or not) */
1144:Drivers/STM32F1xx_HAL_Driver/Src/stm32f1xx_hal_spi.c ****     if (SPI_ISCRCErrorValid(hspi) == SPI_VALID_CRC_ERROR)
1145:Drivers/STM32F1xx_HAL_Driver/Src/stm32f1xx_hal_spi.c ****     {
1146:Drivers/STM32F1xx_HAL_Driver/Src/stm32f1xx_hal_spi.c ****       SET_BIT(hspi->ErrorCode, HAL_SPI_ERROR_CRC);
1147:Drivers/STM32F1xx_HAL_Driver/Src/stm32f1xx_hal_spi.c **** 
1148:Drivers/STM32F1xx_HAL_Driver/Src/stm32f1xx_hal_spi.c ****       /* Reset CRC Calculation */
1149:Drivers/STM32F1xx_HAL_Driver/Src/stm32f1xx_hal_spi.c ****       SPI_RESET_CRC(hspi);
1150:Drivers/STM32F1xx_HAL_Driver/Src/stm32f1xx_hal_spi.c ****     }
1151:Drivers/STM32F1xx_HAL_Driver/Src/stm32f1xx_hal_spi.c ****     else
1152:Drivers/STM32F1xx_HAL_Driver/Src/stm32f1xx_hal_spi.c ****     {
1153:Drivers/STM32F1xx_HAL_Driver/Src/stm32f1xx_hal_spi.c ****       __HAL_SPI_CLEAR_CRCERRFLAG(hspi);
1154:Drivers/STM32F1xx_HAL_Driver/Src/stm32f1xx_hal_spi.c ****     }
1155:Drivers/STM32F1xx_HAL_Driver/Src/stm32f1xx_hal_spi.c ****   }
1156:Drivers/STM32F1xx_HAL_Driver/Src/stm32f1xx_hal_spi.c **** #endif /* USE_SPI_CRC */
1157:Drivers/STM32F1xx_HAL_Driver/Src/stm32f1xx_hal_spi.c **** 
1158:Drivers/STM32F1xx_HAL_Driver/Src/stm32f1xx_hal_spi.c ****   if (hspi->ErrorCode != HAL_SPI_ERROR_NONE)
 1176              		.loc 1 1158 11
 1177 0208 FB68     		ldr	r3, [r7, #12]
 1178 020a 5B6D     		ldr	r3, [r3, #84]
 1179              		.loc 1 1158 6
 1180 020c 002B     		cmp	r3, #0
 1181 020e 02D0     		beq	.L63
1159:Drivers/STM32F1xx_HAL_Driver/Src/stm32f1xx_hal_spi.c ****   {
ARM GAS  C:\Users\Matvey\AppData\Local\Temp\ccf8E5QD.s 			page 42


1160:Drivers/STM32F1xx_HAL_Driver/Src/stm32f1xx_hal_spi.c ****     errorcode = HAL_ERROR;
 1182              		.loc 1 1160 15
 1183 0210 0123     		movs	r3, #1
 1184 0212 FB75     		strb	r3, [r7, #23]
 1185 0214 03E0     		b	.L42
 1186              	.L63:
1161:Drivers/STM32F1xx_HAL_Driver/Src/stm32f1xx_hal_spi.c ****   }
1162:Drivers/STM32F1xx_HAL_Driver/Src/stm32f1xx_hal_spi.c ****   else
1163:Drivers/STM32F1xx_HAL_Driver/Src/stm32f1xx_hal_spi.c ****   {
1164:Drivers/STM32F1xx_HAL_Driver/Src/stm32f1xx_hal_spi.c ****     hspi->State = HAL_SPI_STATE_READY;
 1187              		.loc 1 1164 17
 1188 0216 FB68     		ldr	r3, [r7, #12]
 1189 0218 0122     		movs	r2, #1
 1190 021a 83F85120 		strb	r2, [r3, #81]
 1191              	.L42:
1165:Drivers/STM32F1xx_HAL_Driver/Src/stm32f1xx_hal_spi.c ****   }
1166:Drivers/STM32F1xx_HAL_Driver/Src/stm32f1xx_hal_spi.c **** 
1167:Drivers/STM32F1xx_HAL_Driver/Src/stm32f1xx_hal_spi.c **** error :
1168:Drivers/STM32F1xx_HAL_Driver/Src/stm32f1xx_hal_spi.c ****   __HAL_UNLOCK(hspi);
 1192              		.loc 1 1168 3
 1193 021e FB68     		ldr	r3, [r7, #12]
 1194 0220 0022     		movs	r2, #0
 1195 0222 83F85020 		strb	r2, [r3, #80]
1169:Drivers/STM32F1xx_HAL_Driver/Src/stm32f1xx_hal_spi.c ****   return errorcode;
 1196              		.loc 1 1169 10
 1197 0226 FB7D     		ldrb	r3, [r7, #23]	@ zero_extendqisi2
 1198              	.L44:
1170:Drivers/STM32F1xx_HAL_Driver/Src/stm32f1xx_hal_spi.c **** }
 1199              		.loc 1 1170 1
 1200 0228 1846     		mov	r0, r3
 1201 022a 1837     		adds	r7, r7, #24
 1202              	.LCFI30:
 1203              		.cfi_def_cfa_offset 8
 1204 022c BD46     		mov	sp, r7
 1205              	.LCFI31:
 1206              		.cfi_def_cfa_register 13
 1207              		@ sp needed
 1208 022e 80BD     		pop	{r7, pc}
 1209              		.cfi_endproc
 1210              	.LFE70:
 1212              		.section	.text.HAL_SPI_TransmitReceive,"ax",%progbits
 1213              		.align	1
 1214              		.global	HAL_SPI_TransmitReceive
 1215              		.syntax unified
 1216              		.thumb
 1217              		.thumb_func
 1219              	HAL_SPI_TransmitReceive:
 1220              	.LFB71:
1171:Drivers/STM32F1xx_HAL_Driver/Src/stm32f1xx_hal_spi.c **** 
1172:Drivers/STM32F1xx_HAL_Driver/Src/stm32f1xx_hal_spi.c **** /**
1173:Drivers/STM32F1xx_HAL_Driver/Src/stm32f1xx_hal_spi.c ****   * @brief  Transmit and Receive an amount of data in blocking mode.
1174:Drivers/STM32F1xx_HAL_Driver/Src/stm32f1xx_hal_spi.c ****   * @param  hspi pointer to a SPI_HandleTypeDef structure that contains
1175:Drivers/STM32F1xx_HAL_Driver/Src/stm32f1xx_hal_spi.c ****   *               the configuration information for SPI module.
1176:Drivers/STM32F1xx_HAL_Driver/Src/stm32f1xx_hal_spi.c ****   * @param  pTxData pointer to transmission data buffer
1177:Drivers/STM32F1xx_HAL_Driver/Src/stm32f1xx_hal_spi.c ****   * @param  pRxData pointer to reception data buffer
1178:Drivers/STM32F1xx_HAL_Driver/Src/stm32f1xx_hal_spi.c ****   * @param  Size amount of data to be sent and received
1179:Drivers/STM32F1xx_HAL_Driver/Src/stm32f1xx_hal_spi.c ****   * @param  Timeout Timeout duration
ARM GAS  C:\Users\Matvey\AppData\Local\Temp\ccf8E5QD.s 			page 43


1180:Drivers/STM32F1xx_HAL_Driver/Src/stm32f1xx_hal_spi.c ****   * @retval HAL status
1181:Drivers/STM32F1xx_HAL_Driver/Src/stm32f1xx_hal_spi.c ****   */
1182:Drivers/STM32F1xx_HAL_Driver/Src/stm32f1xx_hal_spi.c **** HAL_StatusTypeDef HAL_SPI_TransmitReceive(SPI_HandleTypeDef *hspi, uint8_t *pTxData, uint8_t *pRxDa
1183:Drivers/STM32F1xx_HAL_Driver/Src/stm32f1xx_hal_spi.c ****                                           uint32_t Timeout)
1184:Drivers/STM32F1xx_HAL_Driver/Src/stm32f1xx_hal_spi.c **** {
 1221              		.loc 1 1184 1
 1222              		.cfi_startproc
 1223              		@ args = 4, pretend = 0, frame = 48
 1224              		@ frame_needed = 1, uses_anonymous_args = 0
 1225 0000 80B5     		push	{r7, lr}
 1226              	.LCFI32:
 1227              		.cfi_def_cfa_offset 8
 1228              		.cfi_offset 7, -8
 1229              		.cfi_offset 14, -4
 1230 0002 8CB0     		sub	sp, sp, #48
 1231              	.LCFI33:
 1232              		.cfi_def_cfa_offset 56
 1233 0004 00AF     		add	r7, sp, #0
 1234              	.LCFI34:
 1235              		.cfi_def_cfa_register 7
 1236 0006 F860     		str	r0, [r7, #12]
 1237 0008 B960     		str	r1, [r7, #8]
 1238 000a 7A60     		str	r2, [r7, #4]
 1239 000c 7B80     		strh	r3, [r7, #2]	@ movhi
1185:Drivers/STM32F1xx_HAL_Driver/Src/stm32f1xx_hal_spi.c ****   uint16_t             initial_TxXferCount;
1186:Drivers/STM32F1xx_HAL_Driver/Src/stm32f1xx_hal_spi.c ****   uint32_t             tmp_mode;
1187:Drivers/STM32F1xx_HAL_Driver/Src/stm32f1xx_hal_spi.c ****   HAL_SPI_StateTypeDef tmp_state;
1188:Drivers/STM32F1xx_HAL_Driver/Src/stm32f1xx_hal_spi.c ****   uint32_t             tickstart;
1189:Drivers/STM32F1xx_HAL_Driver/Src/stm32f1xx_hal_spi.c **** #if (USE_SPI_CRC != 0U)
1190:Drivers/STM32F1xx_HAL_Driver/Src/stm32f1xx_hal_spi.c ****   __IO uint32_t tmpreg = 0U;
1191:Drivers/STM32F1xx_HAL_Driver/Src/stm32f1xx_hal_spi.c **** #endif /* USE_SPI_CRC */
1192:Drivers/STM32F1xx_HAL_Driver/Src/stm32f1xx_hal_spi.c **** 
1193:Drivers/STM32F1xx_HAL_Driver/Src/stm32f1xx_hal_spi.c ****   /* Variable used to alternate Rx and Tx during transfer */
1194:Drivers/STM32F1xx_HAL_Driver/Src/stm32f1xx_hal_spi.c ****   uint32_t             txallowed = 1U;
 1240              		.loc 1 1194 24
 1241 000e 0123     		movs	r3, #1
 1242 0010 FB62     		str	r3, [r7, #44]
1195:Drivers/STM32F1xx_HAL_Driver/Src/stm32f1xx_hal_spi.c ****   HAL_StatusTypeDef    errorcode = HAL_OK;
 1243              		.loc 1 1195 24
 1244 0012 0023     		movs	r3, #0
 1245 0014 87F82B30 		strb	r3, [r7, #43]
1196:Drivers/STM32F1xx_HAL_Driver/Src/stm32f1xx_hal_spi.c **** 
1197:Drivers/STM32F1xx_HAL_Driver/Src/stm32f1xx_hal_spi.c ****   /* Check Direction parameter */
1198:Drivers/STM32F1xx_HAL_Driver/Src/stm32f1xx_hal_spi.c ****   assert_param(IS_SPI_DIRECTION_2LINES(hspi->Init.Direction));
1199:Drivers/STM32F1xx_HAL_Driver/Src/stm32f1xx_hal_spi.c **** 
1200:Drivers/STM32F1xx_HAL_Driver/Src/stm32f1xx_hal_spi.c ****   /* Process Locked */
1201:Drivers/STM32F1xx_HAL_Driver/Src/stm32f1xx_hal_spi.c ****   __HAL_LOCK(hspi);
 1246              		.loc 1 1201 3
 1247 0018 FB68     		ldr	r3, [r7, #12]
 1248 001a 93F85030 		ldrb	r3, [r3, #80]	@ zero_extendqisi2
 1249 001e 012B     		cmp	r3, #1
 1250 0020 01D1     		bne	.L65
 1251              		.loc 1 1201 3 is_stmt 0 discriminator 1
 1252 0022 0223     		movs	r3, #2
 1253 0024 98E1     		b	.L66
 1254              	.L65:
 1255              		.loc 1 1201 3 discriminator 2
ARM GAS  C:\Users\Matvey\AppData\Local\Temp\ccf8E5QD.s 			page 44


 1256 0026 FB68     		ldr	r3, [r7, #12]
 1257 0028 0122     		movs	r2, #1
 1258 002a 83F85020 		strb	r2, [r3, #80]
1202:Drivers/STM32F1xx_HAL_Driver/Src/stm32f1xx_hal_spi.c **** 
1203:Drivers/STM32F1xx_HAL_Driver/Src/stm32f1xx_hal_spi.c ****   /* Init tickstart for timeout management*/
1204:Drivers/STM32F1xx_HAL_Driver/Src/stm32f1xx_hal_spi.c ****   tickstart = HAL_GetTick();
 1259              		.loc 1 1204 15 is_stmt 1 discriminator 2
 1260 002e FFF7FEFF 		bl	HAL_GetTick
 1261 0032 7862     		str	r0, [r7, #36]
1205:Drivers/STM32F1xx_HAL_Driver/Src/stm32f1xx_hal_spi.c **** 
1206:Drivers/STM32F1xx_HAL_Driver/Src/stm32f1xx_hal_spi.c ****   /* Init temporary variables */
1207:Drivers/STM32F1xx_HAL_Driver/Src/stm32f1xx_hal_spi.c ****   tmp_state           = hspi->State;
 1262              		.loc 1 1207 23 discriminator 2
 1263 0034 FB68     		ldr	r3, [r7, #12]
 1264 0036 93F85130 		ldrb	r3, [r3, #81]
 1265 003a 87F82330 		strb	r3, [r7, #35]
1208:Drivers/STM32F1xx_HAL_Driver/Src/stm32f1xx_hal_spi.c ****   tmp_mode            = hspi->Init.Mode;
 1266              		.loc 1 1208 23 discriminator 2
 1267 003e FB68     		ldr	r3, [r7, #12]
 1268 0040 5B68     		ldr	r3, [r3, #4]
 1269 0042 FB61     		str	r3, [r7, #28]
1209:Drivers/STM32F1xx_HAL_Driver/Src/stm32f1xx_hal_spi.c ****   initial_TxXferCount = Size;
 1270              		.loc 1 1209 23 discriminator 2
 1271 0044 7B88     		ldrh	r3, [r7, #2]	@ movhi
 1272 0046 7B83     		strh	r3, [r7, #26]	@ movhi
1210:Drivers/STM32F1xx_HAL_Driver/Src/stm32f1xx_hal_spi.c **** 
1211:Drivers/STM32F1xx_HAL_Driver/Src/stm32f1xx_hal_spi.c ****   if (!((tmp_state == HAL_SPI_STATE_READY) || \
 1273              		.loc 1 1211 6 discriminator 2
 1274 0048 97F82330 		ldrb	r3, [r7, #35]	@ zero_extendqisi2
 1275 004c 012B     		cmp	r3, #1
 1276 004e 0FD0     		beq	.L67
 1277              		.loc 1 1211 7 discriminator 1
 1278 0050 FB69     		ldr	r3, [r7, #28]
 1279 0052 B3F5827F 		cmp	r3, #260
 1280 0056 07D1     		bne	.L68
1212:Drivers/STM32F1xx_HAL_Driver/Src/stm32f1xx_hal_spi.c ****         ((tmp_mode == SPI_MODE_MASTER) && (hspi->Init.Direction == SPI_DIRECTION_2LINES) && (tmp_st
 1281              		.loc 1 1212 54
 1282 0058 FB68     		ldr	r3, [r7, #12]
 1283 005a 9B68     		ldr	r3, [r3, #8]
 1284              		.loc 1 1212 40
 1285 005c 002B     		cmp	r3, #0
 1286 005e 03D1     		bne	.L68
 1287              		.loc 1 1212 90 discriminator 1
 1288 0060 97F82330 		ldrb	r3, [r7, #35]	@ zero_extendqisi2
 1289 0064 042B     		cmp	r3, #4
 1290 0066 03D0     		beq	.L67
 1291              	.L68:
1213:Drivers/STM32F1xx_HAL_Driver/Src/stm32f1xx_hal_spi.c ****   {
1214:Drivers/STM32F1xx_HAL_Driver/Src/stm32f1xx_hal_spi.c ****     errorcode = HAL_BUSY;
 1292              		.loc 1 1214 15
 1293 0068 0223     		movs	r3, #2
 1294 006a 87F82B30 		strb	r3, [r7, #43]
1215:Drivers/STM32F1xx_HAL_Driver/Src/stm32f1xx_hal_spi.c ****     goto error;
 1295              		.loc 1 1215 5
 1296 006e 6DE1     		b	.L69
 1297              	.L67:
1216:Drivers/STM32F1xx_HAL_Driver/Src/stm32f1xx_hal_spi.c ****   }
ARM GAS  C:\Users\Matvey\AppData\Local\Temp\ccf8E5QD.s 			page 45


1217:Drivers/STM32F1xx_HAL_Driver/Src/stm32f1xx_hal_spi.c **** 
1218:Drivers/STM32F1xx_HAL_Driver/Src/stm32f1xx_hal_spi.c ****   if ((pTxData == NULL) || (pRxData == NULL) || (Size == 0U))
 1298              		.loc 1 1218 6
 1299 0070 BB68     		ldr	r3, [r7, #8]
 1300 0072 002B     		cmp	r3, #0
 1301 0074 05D0     		beq	.L70
 1302              		.loc 1 1218 25 discriminator 1
 1303 0076 7B68     		ldr	r3, [r7, #4]
 1304 0078 002B     		cmp	r3, #0
 1305 007a 02D0     		beq	.L70
 1306              		.loc 1 1218 46 discriminator 2
 1307 007c 7B88     		ldrh	r3, [r7, #2]
 1308 007e 002B     		cmp	r3, #0
 1309 0080 03D1     		bne	.L71
 1310              	.L70:
1219:Drivers/STM32F1xx_HAL_Driver/Src/stm32f1xx_hal_spi.c ****   {
1220:Drivers/STM32F1xx_HAL_Driver/Src/stm32f1xx_hal_spi.c ****     errorcode = HAL_ERROR;
 1311              		.loc 1 1220 15
 1312 0082 0123     		movs	r3, #1
 1313 0084 87F82B30 		strb	r3, [r7, #43]
1221:Drivers/STM32F1xx_HAL_Driver/Src/stm32f1xx_hal_spi.c ****     goto error;
 1314              		.loc 1 1221 5
 1315 0088 60E1     		b	.L69
 1316              	.L71:
1222:Drivers/STM32F1xx_HAL_Driver/Src/stm32f1xx_hal_spi.c ****   }
1223:Drivers/STM32F1xx_HAL_Driver/Src/stm32f1xx_hal_spi.c **** 
1224:Drivers/STM32F1xx_HAL_Driver/Src/stm32f1xx_hal_spi.c ****   /* Don't overwrite in case of HAL_SPI_STATE_BUSY_RX */
1225:Drivers/STM32F1xx_HAL_Driver/Src/stm32f1xx_hal_spi.c ****   if (hspi->State != HAL_SPI_STATE_BUSY_RX)
 1317              		.loc 1 1225 11
 1318 008a FB68     		ldr	r3, [r7, #12]
 1319 008c 93F85130 		ldrb	r3, [r3, #81]
 1320 0090 DBB2     		uxtb	r3, r3
 1321              		.loc 1 1225 6
 1322 0092 042B     		cmp	r3, #4
 1323 0094 03D0     		beq	.L72
1226:Drivers/STM32F1xx_HAL_Driver/Src/stm32f1xx_hal_spi.c ****   {
1227:Drivers/STM32F1xx_HAL_Driver/Src/stm32f1xx_hal_spi.c ****     hspi->State = HAL_SPI_STATE_BUSY_TX_RX;
 1324              		.loc 1 1227 17
 1325 0096 FB68     		ldr	r3, [r7, #12]
 1326 0098 0522     		movs	r2, #5
 1327 009a 83F85120 		strb	r2, [r3, #81]
 1328              	.L72:
1228:Drivers/STM32F1xx_HAL_Driver/Src/stm32f1xx_hal_spi.c ****   }
1229:Drivers/STM32F1xx_HAL_Driver/Src/stm32f1xx_hal_spi.c **** 
1230:Drivers/STM32F1xx_HAL_Driver/Src/stm32f1xx_hal_spi.c ****   /* Set the transaction information */
1231:Drivers/STM32F1xx_HAL_Driver/Src/stm32f1xx_hal_spi.c ****   hspi->ErrorCode   = HAL_SPI_ERROR_NONE;
 1329              		.loc 1 1231 21
 1330 009e FB68     		ldr	r3, [r7, #12]
 1331 00a0 0022     		movs	r2, #0
 1332 00a2 5A65     		str	r2, [r3, #84]
1232:Drivers/STM32F1xx_HAL_Driver/Src/stm32f1xx_hal_spi.c ****   hspi->pRxBuffPtr  = (uint8_t *)pRxData;
 1333              		.loc 1 1232 21
 1334 00a4 FB68     		ldr	r3, [r7, #12]
 1335 00a6 7A68     		ldr	r2, [r7, #4]
 1336 00a8 9A63     		str	r2, [r3, #56]
1233:Drivers/STM32F1xx_HAL_Driver/Src/stm32f1xx_hal_spi.c ****   hspi->RxXferCount = Size;
 1337              		.loc 1 1233 21
ARM GAS  C:\Users\Matvey\AppData\Local\Temp\ccf8E5QD.s 			page 46


 1338 00aa FB68     		ldr	r3, [r7, #12]
 1339 00ac 7A88     		ldrh	r2, [r7, #2]	@ movhi
 1340 00ae DA87     		strh	r2, [r3, #62]	@ movhi
1234:Drivers/STM32F1xx_HAL_Driver/Src/stm32f1xx_hal_spi.c ****   hspi->RxXferSize  = Size;
 1341              		.loc 1 1234 21
 1342 00b0 FB68     		ldr	r3, [r7, #12]
 1343 00b2 7A88     		ldrh	r2, [r7, #2]	@ movhi
 1344 00b4 9A87     		strh	r2, [r3, #60]	@ movhi
1235:Drivers/STM32F1xx_HAL_Driver/Src/stm32f1xx_hal_spi.c ****   hspi->pTxBuffPtr  = (uint8_t *)pTxData;
 1345              		.loc 1 1235 21
 1346 00b6 FB68     		ldr	r3, [r7, #12]
 1347 00b8 BA68     		ldr	r2, [r7, #8]
 1348 00ba 1A63     		str	r2, [r3, #48]
1236:Drivers/STM32F1xx_HAL_Driver/Src/stm32f1xx_hal_spi.c ****   hspi->TxXferCount = Size;
 1349              		.loc 1 1236 21
 1350 00bc FB68     		ldr	r3, [r7, #12]
 1351 00be 7A88     		ldrh	r2, [r7, #2]	@ movhi
 1352 00c0 DA86     		strh	r2, [r3, #54]	@ movhi
1237:Drivers/STM32F1xx_HAL_Driver/Src/stm32f1xx_hal_spi.c ****   hspi->TxXferSize  = Size;
 1353              		.loc 1 1237 21
 1354 00c2 FB68     		ldr	r3, [r7, #12]
 1355 00c4 7A88     		ldrh	r2, [r7, #2]	@ movhi
 1356 00c6 9A86     		strh	r2, [r3, #52]	@ movhi
1238:Drivers/STM32F1xx_HAL_Driver/Src/stm32f1xx_hal_spi.c **** 
1239:Drivers/STM32F1xx_HAL_Driver/Src/stm32f1xx_hal_spi.c ****   /*Init field not used in handle to zero */
1240:Drivers/STM32F1xx_HAL_Driver/Src/stm32f1xx_hal_spi.c ****   hspi->RxISR       = NULL;
 1357              		.loc 1 1240 21
 1358 00c8 FB68     		ldr	r3, [r7, #12]
 1359 00ca 0022     		movs	r2, #0
 1360 00cc 1A64     		str	r2, [r3, #64]
1241:Drivers/STM32F1xx_HAL_Driver/Src/stm32f1xx_hal_spi.c ****   hspi->TxISR       = NULL;
 1361              		.loc 1 1241 21
 1362 00ce FB68     		ldr	r3, [r7, #12]
 1363 00d0 0022     		movs	r2, #0
 1364 00d2 5A64     		str	r2, [r3, #68]
1242:Drivers/STM32F1xx_HAL_Driver/Src/stm32f1xx_hal_spi.c **** 
1243:Drivers/STM32F1xx_HAL_Driver/Src/stm32f1xx_hal_spi.c **** #if (USE_SPI_CRC != 0U)
1244:Drivers/STM32F1xx_HAL_Driver/Src/stm32f1xx_hal_spi.c ****   /* Reset CRC Calculation */
1245:Drivers/STM32F1xx_HAL_Driver/Src/stm32f1xx_hal_spi.c ****   if (hspi->Init.CRCCalculation == SPI_CRCCALCULATION_ENABLE)
1246:Drivers/STM32F1xx_HAL_Driver/Src/stm32f1xx_hal_spi.c ****   {
1247:Drivers/STM32F1xx_HAL_Driver/Src/stm32f1xx_hal_spi.c ****     SPI_RESET_CRC(hspi);
1248:Drivers/STM32F1xx_HAL_Driver/Src/stm32f1xx_hal_spi.c ****   }
1249:Drivers/STM32F1xx_HAL_Driver/Src/stm32f1xx_hal_spi.c **** #endif /* USE_SPI_CRC */
1250:Drivers/STM32F1xx_HAL_Driver/Src/stm32f1xx_hal_spi.c **** 
1251:Drivers/STM32F1xx_HAL_Driver/Src/stm32f1xx_hal_spi.c ****   /* Check if the SPI is already enabled */
1252:Drivers/STM32F1xx_HAL_Driver/Src/stm32f1xx_hal_spi.c ****   if ((hspi->Instance->CR1 & SPI_CR1_SPE) != SPI_CR1_SPE)
 1365              		.loc 1 1252 12
 1366 00d4 FB68     		ldr	r3, [r7, #12]
 1367 00d6 1B68     		ldr	r3, [r3]
 1368              		.loc 1 1252 22
 1369 00d8 1B68     		ldr	r3, [r3]
 1370              		.loc 1 1252 28
 1371 00da 03F04003 		and	r3, r3, #64
 1372              		.loc 1 1252 6
 1373 00de 402B     		cmp	r3, #64
 1374 00e0 07D0     		beq	.L73
1253:Drivers/STM32F1xx_HAL_Driver/Src/stm32f1xx_hal_spi.c ****   {
ARM GAS  C:\Users\Matvey\AppData\Local\Temp\ccf8E5QD.s 			page 47


1254:Drivers/STM32F1xx_HAL_Driver/Src/stm32f1xx_hal_spi.c ****     /* Enable SPI peripheral */
1255:Drivers/STM32F1xx_HAL_Driver/Src/stm32f1xx_hal_spi.c ****     __HAL_SPI_ENABLE(hspi);
 1375              		.loc 1 1255 5
 1376 00e2 FB68     		ldr	r3, [r7, #12]
 1377 00e4 1B68     		ldr	r3, [r3]
 1378 00e6 1A68     		ldr	r2, [r3]
 1379 00e8 FB68     		ldr	r3, [r7, #12]
 1380 00ea 1B68     		ldr	r3, [r3]
 1381 00ec 42F04002 		orr	r2, r2, #64
 1382 00f0 1A60     		str	r2, [r3]
 1383              	.L73:
1256:Drivers/STM32F1xx_HAL_Driver/Src/stm32f1xx_hal_spi.c ****   }
1257:Drivers/STM32F1xx_HAL_Driver/Src/stm32f1xx_hal_spi.c **** 
1258:Drivers/STM32F1xx_HAL_Driver/Src/stm32f1xx_hal_spi.c ****   /* Transmit and Receive data in 16 Bit mode */
1259:Drivers/STM32F1xx_HAL_Driver/Src/stm32f1xx_hal_spi.c ****   if (hspi->Init.DataSize == SPI_DATASIZE_16BIT)
 1384              		.loc 1 1259 17
 1385 00f2 FB68     		ldr	r3, [r7, #12]
 1386 00f4 DB68     		ldr	r3, [r3, #12]
 1387              		.loc 1 1259 6
 1388 00f6 B3F5006F 		cmp	r3, #2048
 1389 00fa 7CD1     		bne	.L74
1260:Drivers/STM32F1xx_HAL_Driver/Src/stm32f1xx_hal_spi.c ****   {
1261:Drivers/STM32F1xx_HAL_Driver/Src/stm32f1xx_hal_spi.c ****     if ((hspi->Init.Mode == SPI_MODE_SLAVE) || (initial_TxXferCount == 0x01U))
 1390              		.loc 1 1261 20
 1391 00fc FB68     		ldr	r3, [r7, #12]
 1392 00fe 5B68     		ldr	r3, [r3, #4]
 1393              		.loc 1 1261 8
 1394 0100 002B     		cmp	r3, #0
 1395 0102 02D0     		beq	.L75
 1396              		.loc 1 1261 45 discriminator 1
 1397 0104 7B8B     		ldrh	r3, [r7, #26]
 1398 0106 012B     		cmp	r3, #1
 1399 0108 6AD1     		bne	.L77
 1400              	.L75:
1262:Drivers/STM32F1xx_HAL_Driver/Src/stm32f1xx_hal_spi.c ****     {
1263:Drivers/STM32F1xx_HAL_Driver/Src/stm32f1xx_hal_spi.c ****       hspi->Instance->DR = *((uint16_t *)hspi->pTxBuffPtr);
 1401              		.loc 1 1263 46
 1402 010a FB68     		ldr	r3, [r7, #12]
 1403 010c 1B6B     		ldr	r3, [r3, #48]
 1404              		.loc 1 1263 28
 1405 010e 1A88     		ldrh	r2, [r3]
 1406              		.loc 1 1263 11
 1407 0110 FB68     		ldr	r3, [r7, #12]
 1408 0112 1B68     		ldr	r3, [r3]
 1409              		.loc 1 1263 26
 1410 0114 DA60     		str	r2, [r3, #12]
1264:Drivers/STM32F1xx_HAL_Driver/Src/stm32f1xx_hal_spi.c ****       hspi->pTxBuffPtr += sizeof(uint16_t);
 1411              		.loc 1 1264 24
 1412 0116 FB68     		ldr	r3, [r7, #12]
 1413 0118 1B6B     		ldr	r3, [r3, #48]
 1414 011a 9A1C     		adds	r2, r3, #2
 1415 011c FB68     		ldr	r3, [r7, #12]
 1416 011e 1A63     		str	r2, [r3, #48]
1265:Drivers/STM32F1xx_HAL_Driver/Src/stm32f1xx_hal_spi.c ****       hspi->TxXferCount--;
 1417              		.loc 1 1265 11
 1418 0120 FB68     		ldr	r3, [r7, #12]
 1419 0122 DB8E     		ldrh	r3, [r3, #54]	@ movhi
ARM GAS  C:\Users\Matvey\AppData\Local\Temp\ccf8E5QD.s 			page 48


 1420 0124 9BB2     		uxth	r3, r3
 1421              		.loc 1 1265 24
 1422 0126 013B     		subs	r3, r3, #1
 1423 0128 9AB2     		uxth	r2, r3
 1424 012a FB68     		ldr	r3, [r7, #12]
 1425 012c DA86     		strh	r2, [r3, #54]	@ movhi
1266:Drivers/STM32F1xx_HAL_Driver/Src/stm32f1xx_hal_spi.c ****     }
1267:Drivers/STM32F1xx_HAL_Driver/Src/stm32f1xx_hal_spi.c ****     while ((hspi->TxXferCount > 0U) || (hspi->RxXferCount > 0U))
 1426              		.loc 1 1267 11
 1427 012e 57E0     		b	.L77
 1428              	.L80:
1268:Drivers/STM32F1xx_HAL_Driver/Src/stm32f1xx_hal_spi.c ****     {
1269:Drivers/STM32F1xx_HAL_Driver/Src/stm32f1xx_hal_spi.c ****       /* Check TXE flag */
1270:Drivers/STM32F1xx_HAL_Driver/Src/stm32f1xx_hal_spi.c ****       if ((__HAL_SPI_GET_FLAG(hspi, SPI_FLAG_TXE)) && (hspi->TxXferCount > 0U) && (txallowed == 1U)
 1429              		.loc 1 1270 12
 1430 0130 FB68     		ldr	r3, [r7, #12]
 1431 0132 1B68     		ldr	r3, [r3]
 1432 0134 9B68     		ldr	r3, [r3, #8]
 1433 0136 03F00203 		and	r3, r3, #2
 1434              		.loc 1 1270 10
 1435 013a 022B     		cmp	r3, #2
 1436 013c 1BD1     		bne	.L78
 1437              		.loc 1 1270 60 discriminator 1
 1438 013e FB68     		ldr	r3, [r7, #12]
 1439 0140 DB8E     		ldrh	r3, [r3, #54]	@ movhi
 1440 0142 9BB2     		uxth	r3, r3
 1441              		.loc 1 1270 52 discriminator 1
 1442 0144 002B     		cmp	r3, #0
 1443 0146 16D0     		beq	.L78
 1444              		.loc 1 1270 80 discriminator 2
 1445 0148 FB6A     		ldr	r3, [r7, #44]
 1446 014a 012B     		cmp	r3, #1
 1447 014c 13D1     		bne	.L78
1271:Drivers/STM32F1xx_HAL_Driver/Src/stm32f1xx_hal_spi.c ****       {
1272:Drivers/STM32F1xx_HAL_Driver/Src/stm32f1xx_hal_spi.c ****         hspi->Instance->DR = *((uint16_t *)hspi->pTxBuffPtr);
 1448              		.loc 1 1272 48
 1449 014e FB68     		ldr	r3, [r7, #12]
 1450 0150 1B6B     		ldr	r3, [r3, #48]
 1451              		.loc 1 1272 30
 1452 0152 1A88     		ldrh	r2, [r3]
 1453              		.loc 1 1272 13
 1454 0154 FB68     		ldr	r3, [r7, #12]
 1455 0156 1B68     		ldr	r3, [r3]
 1456              		.loc 1 1272 28
 1457 0158 DA60     		str	r2, [r3, #12]
1273:Drivers/STM32F1xx_HAL_Driver/Src/stm32f1xx_hal_spi.c ****         hspi->pTxBuffPtr += sizeof(uint16_t);
 1458              		.loc 1 1273 26
 1459 015a FB68     		ldr	r3, [r7, #12]
 1460 015c 1B6B     		ldr	r3, [r3, #48]
 1461 015e 9A1C     		adds	r2, r3, #2
 1462 0160 FB68     		ldr	r3, [r7, #12]
 1463 0162 1A63     		str	r2, [r3, #48]
1274:Drivers/STM32F1xx_HAL_Driver/Src/stm32f1xx_hal_spi.c ****         hspi->TxXferCount--;
 1464              		.loc 1 1274 13
 1465 0164 FB68     		ldr	r3, [r7, #12]
 1466 0166 DB8E     		ldrh	r3, [r3, #54]	@ movhi
 1467 0168 9BB2     		uxth	r3, r3
ARM GAS  C:\Users\Matvey\AppData\Local\Temp\ccf8E5QD.s 			page 49


 1468              		.loc 1 1274 26
 1469 016a 013B     		subs	r3, r3, #1
 1470 016c 9AB2     		uxth	r2, r3
 1471 016e FB68     		ldr	r3, [r7, #12]
 1472 0170 DA86     		strh	r2, [r3, #54]	@ movhi
1275:Drivers/STM32F1xx_HAL_Driver/Src/stm32f1xx_hal_spi.c ****         /* Next Data is a reception (Rx). Tx not allowed */
1276:Drivers/STM32F1xx_HAL_Driver/Src/stm32f1xx_hal_spi.c ****         txallowed = 0U;
 1473              		.loc 1 1276 19
 1474 0172 0023     		movs	r3, #0
 1475 0174 FB62     		str	r3, [r7, #44]
 1476              	.L78:
1277:Drivers/STM32F1xx_HAL_Driver/Src/stm32f1xx_hal_spi.c **** 
1278:Drivers/STM32F1xx_HAL_Driver/Src/stm32f1xx_hal_spi.c **** #if (USE_SPI_CRC != 0U)
1279:Drivers/STM32F1xx_HAL_Driver/Src/stm32f1xx_hal_spi.c ****         /* Enable CRC Transmission */
1280:Drivers/STM32F1xx_HAL_Driver/Src/stm32f1xx_hal_spi.c ****         if ((hspi->TxXferCount == 0U) && (hspi->Init.CRCCalculation == SPI_CRCCALCULATION_ENABLE))
1281:Drivers/STM32F1xx_HAL_Driver/Src/stm32f1xx_hal_spi.c ****         {
1282:Drivers/STM32F1xx_HAL_Driver/Src/stm32f1xx_hal_spi.c ****           SET_BIT(hspi->Instance->CR1, SPI_CR1_CRCNEXT);
1283:Drivers/STM32F1xx_HAL_Driver/Src/stm32f1xx_hal_spi.c ****         }
1284:Drivers/STM32F1xx_HAL_Driver/Src/stm32f1xx_hal_spi.c **** #endif /* USE_SPI_CRC */
1285:Drivers/STM32F1xx_HAL_Driver/Src/stm32f1xx_hal_spi.c ****       }
1286:Drivers/STM32F1xx_HAL_Driver/Src/stm32f1xx_hal_spi.c **** 
1287:Drivers/STM32F1xx_HAL_Driver/Src/stm32f1xx_hal_spi.c ****       /* Check RXNE flag */
1288:Drivers/STM32F1xx_HAL_Driver/Src/stm32f1xx_hal_spi.c ****       if ((__HAL_SPI_GET_FLAG(hspi, SPI_FLAG_RXNE)) && (hspi->RxXferCount > 0U))
 1477              		.loc 1 1288 12
 1478 0176 FB68     		ldr	r3, [r7, #12]
 1479 0178 1B68     		ldr	r3, [r3]
 1480 017a 9B68     		ldr	r3, [r3, #8]
 1481 017c 03F00103 		and	r3, r3, #1
 1482              		.loc 1 1288 10
 1483 0180 012B     		cmp	r3, #1
 1484 0182 19D1     		bne	.L79
 1485              		.loc 1 1288 61 discriminator 1
 1486 0184 FB68     		ldr	r3, [r7, #12]
 1487 0186 DB8F     		ldrh	r3, [r3, #62]	@ movhi
 1488 0188 9BB2     		uxth	r3, r3
 1489              		.loc 1 1288 53 discriminator 1
 1490 018a 002B     		cmp	r3, #0
 1491 018c 14D0     		beq	.L79
1289:Drivers/STM32F1xx_HAL_Driver/Src/stm32f1xx_hal_spi.c ****       {
1290:Drivers/STM32F1xx_HAL_Driver/Src/stm32f1xx_hal_spi.c ****         *((uint16_t *)hspi->pRxBuffPtr) = (uint16_t)hspi->Instance->DR;
 1492              		.loc 1 1290 57
 1493 018e FB68     		ldr	r3, [r7, #12]
 1494 0190 1B68     		ldr	r3, [r3]
 1495              		.loc 1 1290 67
 1496 0192 DA68     		ldr	r2, [r3, #12]
 1497              		.loc 1 1290 27
 1498 0194 FB68     		ldr	r3, [r7, #12]
 1499 0196 9B6B     		ldr	r3, [r3, #56]
 1500              		.loc 1 1290 43
 1501 0198 92B2     		uxth	r2, r2
 1502              		.loc 1 1290 41
 1503 019a 1A80     		strh	r2, [r3]	@ movhi
1291:Drivers/STM32F1xx_HAL_Driver/Src/stm32f1xx_hal_spi.c ****         hspi->pRxBuffPtr += sizeof(uint16_t);
 1504              		.loc 1 1291 26
 1505 019c FB68     		ldr	r3, [r7, #12]
 1506 019e 9B6B     		ldr	r3, [r3, #56]
 1507 01a0 9A1C     		adds	r2, r3, #2
ARM GAS  C:\Users\Matvey\AppData\Local\Temp\ccf8E5QD.s 			page 50


 1508 01a2 FB68     		ldr	r3, [r7, #12]
 1509 01a4 9A63     		str	r2, [r3, #56]
1292:Drivers/STM32F1xx_HAL_Driver/Src/stm32f1xx_hal_spi.c ****         hspi->RxXferCount--;
 1510              		.loc 1 1292 13
 1511 01a6 FB68     		ldr	r3, [r7, #12]
 1512 01a8 DB8F     		ldrh	r3, [r3, #62]	@ movhi
 1513 01aa 9BB2     		uxth	r3, r3
 1514              		.loc 1 1292 26
 1515 01ac 013B     		subs	r3, r3, #1
 1516 01ae 9AB2     		uxth	r2, r3
 1517 01b0 FB68     		ldr	r3, [r7, #12]
 1518 01b2 DA87     		strh	r2, [r3, #62]	@ movhi
1293:Drivers/STM32F1xx_HAL_Driver/Src/stm32f1xx_hal_spi.c ****         /* Next Data is a Transmission (Tx). Tx is allowed */
1294:Drivers/STM32F1xx_HAL_Driver/Src/stm32f1xx_hal_spi.c ****         txallowed = 1U;
 1519              		.loc 1 1294 19
 1520 01b4 0123     		movs	r3, #1
 1521 01b6 FB62     		str	r3, [r7, #44]
 1522              	.L79:
1295:Drivers/STM32F1xx_HAL_Driver/Src/stm32f1xx_hal_spi.c ****       }
1296:Drivers/STM32F1xx_HAL_Driver/Src/stm32f1xx_hal_spi.c ****       if (((HAL_GetTick() - tickstart) >=  Timeout) && (Timeout != HAL_MAX_DELAY))
 1523              		.loc 1 1296 13
 1524 01b8 FFF7FEFF 		bl	HAL_GetTick
 1525 01bc 0246     		mov	r2, r0
 1526              		.loc 1 1296 27
 1527 01be 7B6A     		ldr	r3, [r7, #36]
 1528 01c0 D31A     		subs	r3, r2, r3
 1529              		.loc 1 1296 10
 1530 01c2 BA6B     		ldr	r2, [r7, #56]
 1531 01c4 9A42     		cmp	r2, r3
 1532 01c6 0BD8     		bhi	.L77
 1533              		.loc 1 1296 53 discriminator 1
 1534 01c8 BB6B     		ldr	r3, [r7, #56]
 1535 01ca B3F1FF3F 		cmp	r3, #-1
 1536 01ce 07D0     		beq	.L77
1297:Drivers/STM32F1xx_HAL_Driver/Src/stm32f1xx_hal_spi.c ****       {
1298:Drivers/STM32F1xx_HAL_Driver/Src/stm32f1xx_hal_spi.c ****         errorcode = HAL_TIMEOUT;
 1537              		.loc 1 1298 19
 1538 01d0 0323     		movs	r3, #3
 1539 01d2 87F82B30 		strb	r3, [r7, #43]
1299:Drivers/STM32F1xx_HAL_Driver/Src/stm32f1xx_hal_spi.c ****         hspi->State = HAL_SPI_STATE_READY;
 1540              		.loc 1 1299 21
 1541 01d6 FB68     		ldr	r3, [r7, #12]
 1542 01d8 0122     		movs	r2, #1
 1543 01da 83F85120 		strb	r2, [r3, #81]
1300:Drivers/STM32F1xx_HAL_Driver/Src/stm32f1xx_hal_spi.c ****         goto error;
 1544              		.loc 1 1300 9
 1545 01de B5E0     		b	.L69
 1546              	.L77:
1267:Drivers/STM32F1xx_HAL_Driver/Src/stm32f1xx_hal_spi.c ****     {
 1547              		.loc 1 1267 17
 1548 01e0 FB68     		ldr	r3, [r7, #12]
 1549 01e2 DB8E     		ldrh	r3, [r3, #54]	@ movhi
 1550 01e4 9BB2     		uxth	r3, r3
1267:Drivers/STM32F1xx_HAL_Driver/Src/stm32f1xx_hal_spi.c ****     {
 1551              		.loc 1 1267 11
 1552 01e6 002B     		cmp	r3, #0
 1553 01e8 A2D1     		bne	.L80
ARM GAS  C:\Users\Matvey\AppData\Local\Temp\ccf8E5QD.s 			page 51


1267:Drivers/STM32F1xx_HAL_Driver/Src/stm32f1xx_hal_spi.c ****     {
 1554              		.loc 1 1267 45 discriminator 1
 1555 01ea FB68     		ldr	r3, [r7, #12]
 1556 01ec DB8F     		ldrh	r3, [r3, #62]	@ movhi
 1557 01ee 9BB2     		uxth	r3, r3
1267:Drivers/STM32F1xx_HAL_Driver/Src/stm32f1xx_hal_spi.c ****     {
 1558              		.loc 1 1267 37 discriminator 1
 1559 01f0 002B     		cmp	r3, #0
 1560 01f2 9DD1     		bne	.L80
 1561 01f4 80E0     		b	.L81
 1562              	.L74:
1301:Drivers/STM32F1xx_HAL_Driver/Src/stm32f1xx_hal_spi.c ****       }
1302:Drivers/STM32F1xx_HAL_Driver/Src/stm32f1xx_hal_spi.c ****     }
1303:Drivers/STM32F1xx_HAL_Driver/Src/stm32f1xx_hal_spi.c ****   }
1304:Drivers/STM32F1xx_HAL_Driver/Src/stm32f1xx_hal_spi.c ****   /* Transmit and Receive data in 8 Bit mode */
1305:Drivers/STM32F1xx_HAL_Driver/Src/stm32f1xx_hal_spi.c ****   else
1306:Drivers/STM32F1xx_HAL_Driver/Src/stm32f1xx_hal_spi.c ****   {
1307:Drivers/STM32F1xx_HAL_Driver/Src/stm32f1xx_hal_spi.c ****     if ((hspi->Init.Mode == SPI_MODE_SLAVE) || (initial_TxXferCount == 0x01U))
 1563              		.loc 1 1307 20
 1564 01f6 FB68     		ldr	r3, [r7, #12]
 1565 01f8 5B68     		ldr	r3, [r3, #4]
 1566              		.loc 1 1307 8
 1567 01fa 002B     		cmp	r3, #0
 1568 01fc 02D0     		beq	.L82
 1569              		.loc 1 1307 45 discriminator 1
 1570 01fe 7B8B     		ldrh	r3, [r7, #26]
 1571 0200 012B     		cmp	r3, #1
 1572 0202 6FD1     		bne	.L84
 1573              	.L82:
1308:Drivers/STM32F1xx_HAL_Driver/Src/stm32f1xx_hal_spi.c ****     {
1309:Drivers/STM32F1xx_HAL_Driver/Src/stm32f1xx_hal_spi.c ****       *((__IO uint8_t *)&hspi->Instance->DR) = (*hspi->pTxBuffPtr);
 1574              		.loc 1 1309 54
 1575 0204 FB68     		ldr	r3, [r7, #12]
 1576 0206 1A6B     		ldr	r2, [r3, #48]
 1577              		.loc 1 1309 30
 1578 0208 FB68     		ldr	r3, [r7, #12]
 1579 020a 1B68     		ldr	r3, [r3]
 1580              		.loc 1 1309 25
 1581 020c 0C33     		adds	r3, r3, #12
 1582              		.loc 1 1309 49
 1583 020e 1278     		ldrb	r2, [r2]	@ zero_extendqisi2
 1584              		.loc 1 1309 46
 1585 0210 1A70     		strb	r2, [r3]
1310:Drivers/STM32F1xx_HAL_Driver/Src/stm32f1xx_hal_spi.c ****       hspi->pTxBuffPtr += sizeof(uint8_t);
 1586              		.loc 1 1310 24
 1587 0212 FB68     		ldr	r3, [r7, #12]
 1588 0214 1B6B     		ldr	r3, [r3, #48]
 1589 0216 5A1C     		adds	r2, r3, #1
 1590 0218 FB68     		ldr	r3, [r7, #12]
 1591 021a 1A63     		str	r2, [r3, #48]
1311:Drivers/STM32F1xx_HAL_Driver/Src/stm32f1xx_hal_spi.c ****       hspi->TxXferCount--;
 1592              		.loc 1 1311 11
 1593 021c FB68     		ldr	r3, [r7, #12]
 1594 021e DB8E     		ldrh	r3, [r3, #54]	@ movhi
 1595 0220 9BB2     		uxth	r3, r3
 1596              		.loc 1 1311 24
 1597 0222 013B     		subs	r3, r3, #1
ARM GAS  C:\Users\Matvey\AppData\Local\Temp\ccf8E5QD.s 			page 52


 1598 0224 9AB2     		uxth	r2, r3
 1599 0226 FB68     		ldr	r3, [r7, #12]
 1600 0228 DA86     		strh	r2, [r3, #54]	@ movhi
1312:Drivers/STM32F1xx_HAL_Driver/Src/stm32f1xx_hal_spi.c ****     }
1313:Drivers/STM32F1xx_HAL_Driver/Src/stm32f1xx_hal_spi.c ****     while ((hspi->TxXferCount > 0U) || (hspi->RxXferCount > 0U))
 1601              		.loc 1 1313 11
 1602 022a 5BE0     		b	.L84
 1603              	.L89:
1314:Drivers/STM32F1xx_HAL_Driver/Src/stm32f1xx_hal_spi.c ****     {
1315:Drivers/STM32F1xx_HAL_Driver/Src/stm32f1xx_hal_spi.c ****       /* Check TXE flag */
1316:Drivers/STM32F1xx_HAL_Driver/Src/stm32f1xx_hal_spi.c ****       if ((__HAL_SPI_GET_FLAG(hspi, SPI_FLAG_TXE)) && (hspi->TxXferCount > 0U) && (txallowed == 1U)
 1604              		.loc 1 1316 12
 1605 022c FB68     		ldr	r3, [r7, #12]
 1606 022e 1B68     		ldr	r3, [r3]
 1607 0230 9B68     		ldr	r3, [r3, #8]
 1608 0232 03F00203 		and	r3, r3, #2
 1609              		.loc 1 1316 10
 1610 0236 022B     		cmp	r3, #2
 1611 0238 1CD1     		bne	.L85
 1612              		.loc 1 1316 60 discriminator 1
 1613 023a FB68     		ldr	r3, [r7, #12]
 1614 023c DB8E     		ldrh	r3, [r3, #54]	@ movhi
 1615 023e 9BB2     		uxth	r3, r3
 1616              		.loc 1 1316 52 discriminator 1
 1617 0240 002B     		cmp	r3, #0
 1618 0242 17D0     		beq	.L85
 1619              		.loc 1 1316 80 discriminator 2
 1620 0244 FB6A     		ldr	r3, [r7, #44]
 1621 0246 012B     		cmp	r3, #1
 1622 0248 14D1     		bne	.L85
1317:Drivers/STM32F1xx_HAL_Driver/Src/stm32f1xx_hal_spi.c ****       {
1318:Drivers/STM32F1xx_HAL_Driver/Src/stm32f1xx_hal_spi.c ****         *(__IO uint8_t *)&hspi->Instance->DR = (*hspi->pTxBuffPtr);
 1623              		.loc 1 1318 54
 1624 024a FB68     		ldr	r3, [r7, #12]
 1625 024c 1A6B     		ldr	r2, [r3, #48]
 1626              		.loc 1 1318 31
 1627 024e FB68     		ldr	r3, [r7, #12]
 1628 0250 1B68     		ldr	r3, [r3]
 1629              		.loc 1 1318 26
 1630 0252 0C33     		adds	r3, r3, #12
 1631              		.loc 1 1318 49
 1632 0254 1278     		ldrb	r2, [r2]	@ zero_extendqisi2
 1633              		.loc 1 1318 46
 1634 0256 1A70     		strb	r2, [r3]
1319:Drivers/STM32F1xx_HAL_Driver/Src/stm32f1xx_hal_spi.c ****         hspi->pTxBuffPtr++;
 1635              		.loc 1 1319 13
 1636 0258 FB68     		ldr	r3, [r7, #12]
 1637 025a 1B6B     		ldr	r3, [r3, #48]
 1638              		.loc 1 1319 25
 1639 025c 5A1C     		adds	r2, r3, #1
 1640 025e FB68     		ldr	r3, [r7, #12]
 1641 0260 1A63     		str	r2, [r3, #48]
1320:Drivers/STM32F1xx_HAL_Driver/Src/stm32f1xx_hal_spi.c ****         hspi->TxXferCount--;
 1642              		.loc 1 1320 13
 1643 0262 FB68     		ldr	r3, [r7, #12]
 1644 0264 DB8E     		ldrh	r3, [r3, #54]	@ movhi
 1645 0266 9BB2     		uxth	r3, r3
ARM GAS  C:\Users\Matvey\AppData\Local\Temp\ccf8E5QD.s 			page 53


 1646              		.loc 1 1320 26
 1647 0268 013B     		subs	r3, r3, #1
 1648 026a 9AB2     		uxth	r2, r3
 1649 026c FB68     		ldr	r3, [r7, #12]
 1650 026e DA86     		strh	r2, [r3, #54]	@ movhi
1321:Drivers/STM32F1xx_HAL_Driver/Src/stm32f1xx_hal_spi.c ****         /* Next Data is a reception (Rx). Tx not allowed */
1322:Drivers/STM32F1xx_HAL_Driver/Src/stm32f1xx_hal_spi.c ****         txallowed = 0U;
 1651              		.loc 1 1322 19
 1652 0270 0023     		movs	r3, #0
 1653 0272 FB62     		str	r3, [r7, #44]
 1654              	.L85:
1323:Drivers/STM32F1xx_HAL_Driver/Src/stm32f1xx_hal_spi.c **** 
1324:Drivers/STM32F1xx_HAL_Driver/Src/stm32f1xx_hal_spi.c **** #if (USE_SPI_CRC != 0U)
1325:Drivers/STM32F1xx_HAL_Driver/Src/stm32f1xx_hal_spi.c ****         /* Enable CRC Transmission */
1326:Drivers/STM32F1xx_HAL_Driver/Src/stm32f1xx_hal_spi.c ****         if ((hspi->TxXferCount == 0U) && (hspi->Init.CRCCalculation == SPI_CRCCALCULATION_ENABLE))
1327:Drivers/STM32F1xx_HAL_Driver/Src/stm32f1xx_hal_spi.c ****         {
1328:Drivers/STM32F1xx_HAL_Driver/Src/stm32f1xx_hal_spi.c ****           SET_BIT(hspi->Instance->CR1, SPI_CR1_CRCNEXT);
1329:Drivers/STM32F1xx_HAL_Driver/Src/stm32f1xx_hal_spi.c ****         }
1330:Drivers/STM32F1xx_HAL_Driver/Src/stm32f1xx_hal_spi.c **** #endif /* USE_SPI_CRC */
1331:Drivers/STM32F1xx_HAL_Driver/Src/stm32f1xx_hal_spi.c ****       }
1332:Drivers/STM32F1xx_HAL_Driver/Src/stm32f1xx_hal_spi.c **** 
1333:Drivers/STM32F1xx_HAL_Driver/Src/stm32f1xx_hal_spi.c ****       /* Wait until RXNE flag is reset */
1334:Drivers/STM32F1xx_HAL_Driver/Src/stm32f1xx_hal_spi.c ****       if ((__HAL_SPI_GET_FLAG(hspi, SPI_FLAG_RXNE)) && (hspi->RxXferCount > 0U))
 1655              		.loc 1 1334 12
 1656 0274 FB68     		ldr	r3, [r7, #12]
 1657 0276 1B68     		ldr	r3, [r3]
 1658 0278 9B68     		ldr	r3, [r3, #8]
 1659 027a 03F00103 		and	r3, r3, #1
 1660              		.loc 1 1334 10
 1661 027e 012B     		cmp	r3, #1
 1662 0280 19D1     		bne	.L86
 1663              		.loc 1 1334 61 discriminator 1
 1664 0282 FB68     		ldr	r3, [r7, #12]
 1665 0284 DB8F     		ldrh	r3, [r3, #62]	@ movhi
 1666 0286 9BB2     		uxth	r3, r3
 1667              		.loc 1 1334 53 discriminator 1
 1668 0288 002B     		cmp	r3, #0
 1669 028a 14D0     		beq	.L86
1335:Drivers/STM32F1xx_HAL_Driver/Src/stm32f1xx_hal_spi.c ****       {
1336:Drivers/STM32F1xx_HAL_Driver/Src/stm32f1xx_hal_spi.c ****         (*(uint8_t *)hspi->pRxBuffPtr) = hspi->Instance->DR;
 1670              		.loc 1 1336 46
 1671 028c FB68     		ldr	r3, [r7, #12]
 1672 028e 1B68     		ldr	r3, [r3]
 1673              		.loc 1 1336 56
 1674 0290 DA68     		ldr	r2, [r3, #12]
 1675              		.loc 1 1336 26
 1676 0292 FB68     		ldr	r3, [r7, #12]
 1677 0294 9B6B     		ldr	r3, [r3, #56]
 1678              		.loc 1 1336 40
 1679 0296 D2B2     		uxtb	r2, r2
 1680 0298 1A70     		strb	r2, [r3]
1337:Drivers/STM32F1xx_HAL_Driver/Src/stm32f1xx_hal_spi.c ****         hspi->pRxBuffPtr++;
 1681              		.loc 1 1337 13
 1682 029a FB68     		ldr	r3, [r7, #12]
 1683 029c 9B6B     		ldr	r3, [r3, #56]
 1684              		.loc 1 1337 25
 1685 029e 5A1C     		adds	r2, r3, #1
ARM GAS  C:\Users\Matvey\AppData\Local\Temp\ccf8E5QD.s 			page 54


 1686 02a0 FB68     		ldr	r3, [r7, #12]
 1687 02a2 9A63     		str	r2, [r3, #56]
1338:Drivers/STM32F1xx_HAL_Driver/Src/stm32f1xx_hal_spi.c ****         hspi->RxXferCount--;
 1688              		.loc 1 1338 13
 1689 02a4 FB68     		ldr	r3, [r7, #12]
 1690 02a6 DB8F     		ldrh	r3, [r3, #62]	@ movhi
 1691 02a8 9BB2     		uxth	r3, r3
 1692              		.loc 1 1338 26
 1693 02aa 013B     		subs	r3, r3, #1
 1694 02ac 9AB2     		uxth	r2, r3
 1695 02ae FB68     		ldr	r3, [r7, #12]
 1696 02b0 DA87     		strh	r2, [r3, #62]	@ movhi
1339:Drivers/STM32F1xx_HAL_Driver/Src/stm32f1xx_hal_spi.c ****         /* Next Data is a Transmission (Tx). Tx is allowed */
1340:Drivers/STM32F1xx_HAL_Driver/Src/stm32f1xx_hal_spi.c ****         txallowed = 1U;
 1697              		.loc 1 1340 19
 1698 02b2 0123     		movs	r3, #1
 1699 02b4 FB62     		str	r3, [r7, #44]
 1700              	.L86:
1341:Drivers/STM32F1xx_HAL_Driver/Src/stm32f1xx_hal_spi.c ****       }
1342:Drivers/STM32F1xx_HAL_Driver/Src/stm32f1xx_hal_spi.c ****       if ((((HAL_GetTick() - tickstart) >=  Timeout) && ((Timeout != HAL_MAX_DELAY))) || (Timeout =
 1701              		.loc 1 1342 14
 1702 02b6 FFF7FEFF 		bl	HAL_GetTick
 1703 02ba 0246     		mov	r2, r0
 1704              		.loc 1 1342 28
 1705 02bc 7B6A     		ldr	r3, [r7, #36]
 1706 02be D31A     		subs	r3, r2, r3
 1707              		.loc 1 1342 10
 1708 02c0 BA6B     		ldr	r2, [r7, #56]
 1709 02c2 9A42     		cmp	r2, r3
 1710 02c4 03D8     		bhi	.L87
 1711              		.loc 1 1342 54 discriminator 1
 1712 02c6 BB6B     		ldr	r3, [r7, #56]
 1713 02c8 B3F1FF3F 		cmp	r3, #-1
 1714 02cc 02D1     		bne	.L88
 1715              	.L87:
 1716              		.loc 1 1342 87 discriminator 3
 1717 02ce BB6B     		ldr	r3, [r7, #56]
 1718 02d0 002B     		cmp	r3, #0
 1719 02d2 07D1     		bne	.L84
 1720              	.L88:
1343:Drivers/STM32F1xx_HAL_Driver/Src/stm32f1xx_hal_spi.c ****       {
1344:Drivers/STM32F1xx_HAL_Driver/Src/stm32f1xx_hal_spi.c ****         errorcode = HAL_TIMEOUT;
 1721              		.loc 1 1344 19
 1722 02d4 0323     		movs	r3, #3
 1723 02d6 87F82B30 		strb	r3, [r7, #43]
1345:Drivers/STM32F1xx_HAL_Driver/Src/stm32f1xx_hal_spi.c ****         hspi->State = HAL_SPI_STATE_READY;
 1724              		.loc 1 1345 21
 1725 02da FB68     		ldr	r3, [r7, #12]
 1726 02dc 0122     		movs	r2, #1
 1727 02de 83F85120 		strb	r2, [r3, #81]
1346:Drivers/STM32F1xx_HAL_Driver/Src/stm32f1xx_hal_spi.c ****         goto error;
 1728              		.loc 1 1346 9
 1729 02e2 33E0     		b	.L69
 1730              	.L84:
1313:Drivers/STM32F1xx_HAL_Driver/Src/stm32f1xx_hal_spi.c ****     {
 1731              		.loc 1 1313 17
 1732 02e4 FB68     		ldr	r3, [r7, #12]
ARM GAS  C:\Users\Matvey\AppData\Local\Temp\ccf8E5QD.s 			page 55


 1733 02e6 DB8E     		ldrh	r3, [r3, #54]	@ movhi
 1734 02e8 9BB2     		uxth	r3, r3
1313:Drivers/STM32F1xx_HAL_Driver/Src/stm32f1xx_hal_spi.c ****     {
 1735              		.loc 1 1313 11
 1736 02ea 002B     		cmp	r3, #0
 1737 02ec 9ED1     		bne	.L89
1313:Drivers/STM32F1xx_HAL_Driver/Src/stm32f1xx_hal_spi.c ****     {
 1738              		.loc 1 1313 45 discriminator 1
 1739 02ee FB68     		ldr	r3, [r7, #12]
 1740 02f0 DB8F     		ldrh	r3, [r3, #62]	@ movhi
 1741 02f2 9BB2     		uxth	r3, r3
1313:Drivers/STM32F1xx_HAL_Driver/Src/stm32f1xx_hal_spi.c ****     {
 1742              		.loc 1 1313 37 discriminator 1
 1743 02f4 002B     		cmp	r3, #0
 1744 02f6 99D1     		bne	.L89
 1745              	.L81:
1347:Drivers/STM32F1xx_HAL_Driver/Src/stm32f1xx_hal_spi.c ****       }
1348:Drivers/STM32F1xx_HAL_Driver/Src/stm32f1xx_hal_spi.c ****     }
1349:Drivers/STM32F1xx_HAL_Driver/Src/stm32f1xx_hal_spi.c ****   }
1350:Drivers/STM32F1xx_HAL_Driver/Src/stm32f1xx_hal_spi.c **** 
1351:Drivers/STM32F1xx_HAL_Driver/Src/stm32f1xx_hal_spi.c **** #if (USE_SPI_CRC != 0U)
1352:Drivers/STM32F1xx_HAL_Driver/Src/stm32f1xx_hal_spi.c ****   /* Read CRC from DR to close CRC calculation process */
1353:Drivers/STM32F1xx_HAL_Driver/Src/stm32f1xx_hal_spi.c ****   if (hspi->Init.CRCCalculation == SPI_CRCCALCULATION_ENABLE)
1354:Drivers/STM32F1xx_HAL_Driver/Src/stm32f1xx_hal_spi.c ****   {
1355:Drivers/STM32F1xx_HAL_Driver/Src/stm32f1xx_hal_spi.c ****     /* Wait until TXE flag */
1356:Drivers/STM32F1xx_HAL_Driver/Src/stm32f1xx_hal_spi.c ****     if (SPI_WaitFlagStateUntilTimeout(hspi, SPI_FLAG_RXNE, SET, Timeout, tickstart) != HAL_OK)
1357:Drivers/STM32F1xx_HAL_Driver/Src/stm32f1xx_hal_spi.c ****     {
1358:Drivers/STM32F1xx_HAL_Driver/Src/stm32f1xx_hal_spi.c ****       /* Error on the CRC reception */
1359:Drivers/STM32F1xx_HAL_Driver/Src/stm32f1xx_hal_spi.c ****       SET_BIT(hspi->ErrorCode, HAL_SPI_ERROR_CRC);
1360:Drivers/STM32F1xx_HAL_Driver/Src/stm32f1xx_hal_spi.c ****       errorcode = HAL_TIMEOUT;
1361:Drivers/STM32F1xx_HAL_Driver/Src/stm32f1xx_hal_spi.c ****       goto error;
1362:Drivers/STM32F1xx_HAL_Driver/Src/stm32f1xx_hal_spi.c ****     }
1363:Drivers/STM32F1xx_HAL_Driver/Src/stm32f1xx_hal_spi.c ****     /* Read CRC */
1364:Drivers/STM32F1xx_HAL_Driver/Src/stm32f1xx_hal_spi.c ****     tmpreg = READ_REG(hspi->Instance->DR);
1365:Drivers/STM32F1xx_HAL_Driver/Src/stm32f1xx_hal_spi.c ****     /* To avoid GCC warning */
1366:Drivers/STM32F1xx_HAL_Driver/Src/stm32f1xx_hal_spi.c ****     UNUSED(tmpreg);
1367:Drivers/STM32F1xx_HAL_Driver/Src/stm32f1xx_hal_spi.c ****   }
1368:Drivers/STM32F1xx_HAL_Driver/Src/stm32f1xx_hal_spi.c **** 
1369:Drivers/STM32F1xx_HAL_Driver/Src/stm32f1xx_hal_spi.c ****   /* Check if CRC error occurred */
1370:Drivers/STM32F1xx_HAL_Driver/Src/stm32f1xx_hal_spi.c ****   if (__HAL_SPI_GET_FLAG(hspi, SPI_FLAG_CRCERR) != RESET)
1371:Drivers/STM32F1xx_HAL_Driver/Src/stm32f1xx_hal_spi.c ****   {
1372:Drivers/STM32F1xx_HAL_Driver/Src/stm32f1xx_hal_spi.c ****     /* Check if CRC error is valid or not (workaround to be applied or not) */
1373:Drivers/STM32F1xx_HAL_Driver/Src/stm32f1xx_hal_spi.c ****     if (SPI_ISCRCErrorValid(hspi) == SPI_VALID_CRC_ERROR)
1374:Drivers/STM32F1xx_HAL_Driver/Src/stm32f1xx_hal_spi.c ****     {
1375:Drivers/STM32F1xx_HAL_Driver/Src/stm32f1xx_hal_spi.c ****       SET_BIT(hspi->ErrorCode, HAL_SPI_ERROR_CRC);
1376:Drivers/STM32F1xx_HAL_Driver/Src/stm32f1xx_hal_spi.c **** 
1377:Drivers/STM32F1xx_HAL_Driver/Src/stm32f1xx_hal_spi.c ****       /* Reset CRC Calculation */
1378:Drivers/STM32F1xx_HAL_Driver/Src/stm32f1xx_hal_spi.c ****       SPI_RESET_CRC(hspi);
1379:Drivers/STM32F1xx_HAL_Driver/Src/stm32f1xx_hal_spi.c **** 
1380:Drivers/STM32F1xx_HAL_Driver/Src/stm32f1xx_hal_spi.c ****       errorcode = HAL_ERROR;
1381:Drivers/STM32F1xx_HAL_Driver/Src/stm32f1xx_hal_spi.c ****     }
1382:Drivers/STM32F1xx_HAL_Driver/Src/stm32f1xx_hal_spi.c ****     else
1383:Drivers/STM32F1xx_HAL_Driver/Src/stm32f1xx_hal_spi.c ****     {
1384:Drivers/STM32F1xx_HAL_Driver/Src/stm32f1xx_hal_spi.c ****       __HAL_SPI_CLEAR_CRCERRFLAG(hspi);
1385:Drivers/STM32F1xx_HAL_Driver/Src/stm32f1xx_hal_spi.c ****     }
1386:Drivers/STM32F1xx_HAL_Driver/Src/stm32f1xx_hal_spi.c ****   }
1387:Drivers/STM32F1xx_HAL_Driver/Src/stm32f1xx_hal_spi.c **** #endif /* USE_SPI_CRC */
ARM GAS  C:\Users\Matvey\AppData\Local\Temp\ccf8E5QD.s 			page 56


1388:Drivers/STM32F1xx_HAL_Driver/Src/stm32f1xx_hal_spi.c **** 
1389:Drivers/STM32F1xx_HAL_Driver/Src/stm32f1xx_hal_spi.c ****   /* Check the end of the transaction */
1390:Drivers/STM32F1xx_HAL_Driver/Src/stm32f1xx_hal_spi.c ****   if (SPI_EndRxTxTransaction(hspi, Timeout, tickstart) != HAL_OK)
 1746              		.loc 1 1390 7
 1747 02f8 7A6A     		ldr	r2, [r7, #36]
 1748 02fa B96B     		ldr	r1, [r7, #56]
 1749 02fc F868     		ldr	r0, [r7, #12]
 1750 02fe FFF7FEFF 		bl	SPI_EndRxTxTransaction
 1751 0302 0346     		mov	r3, r0
 1752              		.loc 1 1390 6
 1753 0304 002B     		cmp	r3, #0
 1754 0306 06D0     		beq	.L90
1391:Drivers/STM32F1xx_HAL_Driver/Src/stm32f1xx_hal_spi.c ****   {
1392:Drivers/STM32F1xx_HAL_Driver/Src/stm32f1xx_hal_spi.c ****     errorcode = HAL_ERROR;
 1755              		.loc 1 1392 15
 1756 0308 0123     		movs	r3, #1
 1757 030a 87F82B30 		strb	r3, [r7, #43]
1393:Drivers/STM32F1xx_HAL_Driver/Src/stm32f1xx_hal_spi.c ****     hspi->ErrorCode = HAL_SPI_ERROR_FLAG;
 1758              		.loc 1 1393 21
 1759 030e FB68     		ldr	r3, [r7, #12]
 1760 0310 2022     		movs	r2, #32
 1761 0312 5A65     		str	r2, [r3, #84]
1394:Drivers/STM32F1xx_HAL_Driver/Src/stm32f1xx_hal_spi.c ****     goto error;
 1762              		.loc 1 1394 5
 1763 0314 1AE0     		b	.L69
 1764              	.L90:
1395:Drivers/STM32F1xx_HAL_Driver/Src/stm32f1xx_hal_spi.c ****   }
1396:Drivers/STM32F1xx_HAL_Driver/Src/stm32f1xx_hal_spi.c **** 
1397:Drivers/STM32F1xx_HAL_Driver/Src/stm32f1xx_hal_spi.c ****   /* Clear overrun flag in 2 Lines communication mode because received is not read */
1398:Drivers/STM32F1xx_HAL_Driver/Src/stm32f1xx_hal_spi.c ****   if (hspi->Init.Direction == SPI_DIRECTION_2LINES)
 1765              		.loc 1 1398 17
 1766 0316 FB68     		ldr	r3, [r7, #12]
 1767 0318 9B68     		ldr	r3, [r3, #8]
 1768              		.loc 1 1398 6
 1769 031a 002B     		cmp	r3, #0
 1770 031c 0AD1     		bne	.L91
 1771              	.LBB3:
1399:Drivers/STM32F1xx_HAL_Driver/Src/stm32f1xx_hal_spi.c ****   {
1400:Drivers/STM32F1xx_HAL_Driver/Src/stm32f1xx_hal_spi.c ****     __HAL_SPI_CLEAR_OVRFLAG(hspi);
 1772              		.loc 1 1400 5
 1773 031e 0023     		movs	r3, #0
 1774 0320 7B61     		str	r3, [r7, #20]
 1775 0322 FB68     		ldr	r3, [r7, #12]
 1776 0324 1B68     		ldr	r3, [r3]
 1777 0326 DB68     		ldr	r3, [r3, #12]
 1778 0328 7B61     		str	r3, [r7, #20]
 1779 032a FB68     		ldr	r3, [r7, #12]
 1780 032c 1B68     		ldr	r3, [r3]
 1781 032e 9B68     		ldr	r3, [r3, #8]
 1782 0330 7B61     		str	r3, [r7, #20]
 1783 0332 7B69     		ldr	r3, [r7, #20]
 1784              	.L91:
 1785              	.LBE3:
1401:Drivers/STM32F1xx_HAL_Driver/Src/stm32f1xx_hal_spi.c ****   }
1402:Drivers/STM32F1xx_HAL_Driver/Src/stm32f1xx_hal_spi.c **** 
1403:Drivers/STM32F1xx_HAL_Driver/Src/stm32f1xx_hal_spi.c ****   if (hspi->ErrorCode != HAL_SPI_ERROR_NONE)
 1786              		.loc 1 1403 11
ARM GAS  C:\Users\Matvey\AppData\Local\Temp\ccf8E5QD.s 			page 57


 1787 0334 FB68     		ldr	r3, [r7, #12]
 1788 0336 5B6D     		ldr	r3, [r3, #84]
 1789              		.loc 1 1403 6
 1790 0338 002B     		cmp	r3, #0
 1791 033a 03D0     		beq	.L92
1404:Drivers/STM32F1xx_HAL_Driver/Src/stm32f1xx_hal_spi.c ****   {
1405:Drivers/STM32F1xx_HAL_Driver/Src/stm32f1xx_hal_spi.c ****     errorcode = HAL_ERROR;
 1792              		.loc 1 1405 15
 1793 033c 0123     		movs	r3, #1
 1794 033e 87F82B30 		strb	r3, [r7, #43]
 1795 0342 03E0     		b	.L69
 1796              	.L92:
1406:Drivers/STM32F1xx_HAL_Driver/Src/stm32f1xx_hal_spi.c ****   }
1407:Drivers/STM32F1xx_HAL_Driver/Src/stm32f1xx_hal_spi.c ****   else
1408:Drivers/STM32F1xx_HAL_Driver/Src/stm32f1xx_hal_spi.c ****   {
1409:Drivers/STM32F1xx_HAL_Driver/Src/stm32f1xx_hal_spi.c ****     hspi->State = HAL_SPI_STATE_READY;
 1797              		.loc 1 1409 17
 1798 0344 FB68     		ldr	r3, [r7, #12]
 1799 0346 0122     		movs	r2, #1
 1800 0348 83F85120 		strb	r2, [r3, #81]
 1801              	.L69:
1410:Drivers/STM32F1xx_HAL_Driver/Src/stm32f1xx_hal_spi.c ****   }
1411:Drivers/STM32F1xx_HAL_Driver/Src/stm32f1xx_hal_spi.c ****   
1412:Drivers/STM32F1xx_HAL_Driver/Src/stm32f1xx_hal_spi.c **** error :
1413:Drivers/STM32F1xx_HAL_Driver/Src/stm32f1xx_hal_spi.c ****   __HAL_UNLOCK(hspi);
 1802              		.loc 1 1413 3
 1803 034c FB68     		ldr	r3, [r7, #12]
 1804 034e 0022     		movs	r2, #0
 1805 0350 83F85020 		strb	r2, [r3, #80]
1414:Drivers/STM32F1xx_HAL_Driver/Src/stm32f1xx_hal_spi.c ****   return errorcode;
 1806              		.loc 1 1414 10
 1807 0354 97F82B30 		ldrb	r3, [r7, #43]	@ zero_extendqisi2
 1808              	.L66:
1415:Drivers/STM32F1xx_HAL_Driver/Src/stm32f1xx_hal_spi.c **** }
 1809              		.loc 1 1415 1
 1810 0358 1846     		mov	r0, r3
 1811 035a 3037     		adds	r7, r7, #48
 1812              	.LCFI35:
 1813              		.cfi_def_cfa_offset 8
 1814 035c BD46     		mov	sp, r7
 1815              	.LCFI36:
 1816              		.cfi_def_cfa_register 13
 1817              		@ sp needed
 1818 035e 80BD     		pop	{r7, pc}
 1819              		.cfi_endproc
 1820              	.LFE71:
 1822              		.section	.text.HAL_SPI_Transmit_IT,"ax",%progbits
 1823              		.align	1
 1824              		.global	HAL_SPI_Transmit_IT
 1825              		.syntax unified
 1826              		.thumb
 1827              		.thumb_func
 1829              	HAL_SPI_Transmit_IT:
 1830              	.LFB72:
1416:Drivers/STM32F1xx_HAL_Driver/Src/stm32f1xx_hal_spi.c **** 
1417:Drivers/STM32F1xx_HAL_Driver/Src/stm32f1xx_hal_spi.c **** /**
1418:Drivers/STM32F1xx_HAL_Driver/Src/stm32f1xx_hal_spi.c ****   * @brief  Transmit an amount of data in non-blocking mode with Interrupt.
ARM GAS  C:\Users\Matvey\AppData\Local\Temp\ccf8E5QD.s 			page 58


1419:Drivers/STM32F1xx_HAL_Driver/Src/stm32f1xx_hal_spi.c ****   * @param  hspi pointer to a SPI_HandleTypeDef structure that contains
1420:Drivers/STM32F1xx_HAL_Driver/Src/stm32f1xx_hal_spi.c ****   *               the configuration information for SPI module.
1421:Drivers/STM32F1xx_HAL_Driver/Src/stm32f1xx_hal_spi.c ****   * @param  pData pointer to data buffer
1422:Drivers/STM32F1xx_HAL_Driver/Src/stm32f1xx_hal_spi.c ****   * @param  Size amount of data to be sent
1423:Drivers/STM32F1xx_HAL_Driver/Src/stm32f1xx_hal_spi.c ****   * @retval HAL status
1424:Drivers/STM32F1xx_HAL_Driver/Src/stm32f1xx_hal_spi.c ****   */
1425:Drivers/STM32F1xx_HAL_Driver/Src/stm32f1xx_hal_spi.c **** HAL_StatusTypeDef HAL_SPI_Transmit_IT(SPI_HandleTypeDef *hspi, uint8_t *pData, uint16_t Size)
1426:Drivers/STM32F1xx_HAL_Driver/Src/stm32f1xx_hal_spi.c **** {
 1831              		.loc 1 1426 1
 1832              		.cfi_startproc
 1833              		@ args = 0, pretend = 0, frame = 24
 1834              		@ frame_needed = 1, uses_anonymous_args = 0
 1835              		@ link register save eliminated.
 1836 0000 80B4     		push	{r7}
 1837              	.LCFI37:
 1838              		.cfi_def_cfa_offset 4
 1839              		.cfi_offset 7, -4
 1840 0002 87B0     		sub	sp, sp, #28
 1841              	.LCFI38:
 1842              		.cfi_def_cfa_offset 32
 1843 0004 00AF     		add	r7, sp, #0
 1844              	.LCFI39:
 1845              		.cfi_def_cfa_register 7
 1846 0006 F860     		str	r0, [r7, #12]
 1847 0008 B960     		str	r1, [r7, #8]
 1848 000a 1346     		mov	r3, r2
 1849 000c FB80     		strh	r3, [r7, #6]	@ movhi
1427:Drivers/STM32F1xx_HAL_Driver/Src/stm32f1xx_hal_spi.c ****   HAL_StatusTypeDef errorcode = HAL_OK;
 1850              		.loc 1 1427 21
 1851 000e 0023     		movs	r3, #0
 1852 0010 FB75     		strb	r3, [r7, #23]
1428:Drivers/STM32F1xx_HAL_Driver/Src/stm32f1xx_hal_spi.c **** 
1429:Drivers/STM32F1xx_HAL_Driver/Src/stm32f1xx_hal_spi.c ****   /* Check Direction parameter */
1430:Drivers/STM32F1xx_HAL_Driver/Src/stm32f1xx_hal_spi.c ****   assert_param(IS_SPI_DIRECTION_2LINES_OR_1LINE(hspi->Init.Direction));
1431:Drivers/STM32F1xx_HAL_Driver/Src/stm32f1xx_hal_spi.c **** 
1432:Drivers/STM32F1xx_HAL_Driver/Src/stm32f1xx_hal_spi.c ****   /* Process Locked */
1433:Drivers/STM32F1xx_HAL_Driver/Src/stm32f1xx_hal_spi.c ****   __HAL_LOCK(hspi);
 1853              		.loc 1 1433 3
 1854 0012 FB68     		ldr	r3, [r7, #12]
 1855 0014 93F85030 		ldrb	r3, [r3, #80]	@ zero_extendqisi2
 1856 0018 012B     		cmp	r3, #1
 1857 001a 01D1     		bne	.L94
 1858              		.loc 1 1433 3 is_stmt 0 discriminator 1
 1859 001c 0223     		movs	r3, #2
 1860 001e 6FE0     		b	.L95
 1861              	.L94:
 1862              		.loc 1 1433 3 discriminator 2
 1863 0020 FB68     		ldr	r3, [r7, #12]
 1864 0022 0122     		movs	r2, #1
 1865 0024 83F85020 		strb	r2, [r3, #80]
1434:Drivers/STM32F1xx_HAL_Driver/Src/stm32f1xx_hal_spi.c **** 
1435:Drivers/STM32F1xx_HAL_Driver/Src/stm32f1xx_hal_spi.c ****   if ((pData == NULL) || (Size == 0U))
 1866              		.loc 1 1435 6 is_stmt 1 discriminator 2
 1867 0028 BB68     		ldr	r3, [r7, #8]
 1868 002a 002B     		cmp	r3, #0
 1869 002c 02D0     		beq	.L96
 1870              		.loc 1 1435 23 discriminator 1
ARM GAS  C:\Users\Matvey\AppData\Local\Temp\ccf8E5QD.s 			page 59


 1871 002e FB88     		ldrh	r3, [r7, #6]
 1872 0030 002B     		cmp	r3, #0
 1873 0032 02D1     		bne	.L97
 1874              	.L96:
1436:Drivers/STM32F1xx_HAL_Driver/Src/stm32f1xx_hal_spi.c ****   {
1437:Drivers/STM32F1xx_HAL_Driver/Src/stm32f1xx_hal_spi.c ****     errorcode = HAL_ERROR;
 1875              		.loc 1 1437 15
 1876 0034 0123     		movs	r3, #1
 1877 0036 FB75     		strb	r3, [r7, #23]
1438:Drivers/STM32F1xx_HAL_Driver/Src/stm32f1xx_hal_spi.c ****     goto error;
 1878              		.loc 1 1438 5
 1879 0038 5DE0     		b	.L98
 1880              	.L97:
1439:Drivers/STM32F1xx_HAL_Driver/Src/stm32f1xx_hal_spi.c ****   }
1440:Drivers/STM32F1xx_HAL_Driver/Src/stm32f1xx_hal_spi.c **** 
1441:Drivers/STM32F1xx_HAL_Driver/Src/stm32f1xx_hal_spi.c ****   if (hspi->State != HAL_SPI_STATE_READY)
 1881              		.loc 1 1441 11
 1882 003a FB68     		ldr	r3, [r7, #12]
 1883 003c 93F85130 		ldrb	r3, [r3, #81]
 1884 0040 DBB2     		uxtb	r3, r3
 1885              		.loc 1 1441 6
 1886 0042 012B     		cmp	r3, #1
 1887 0044 02D0     		beq	.L99
1442:Drivers/STM32F1xx_HAL_Driver/Src/stm32f1xx_hal_spi.c ****   {
1443:Drivers/STM32F1xx_HAL_Driver/Src/stm32f1xx_hal_spi.c ****     errorcode = HAL_BUSY;
 1888              		.loc 1 1443 15
 1889 0046 0223     		movs	r3, #2
 1890 0048 FB75     		strb	r3, [r7, #23]
1444:Drivers/STM32F1xx_HAL_Driver/Src/stm32f1xx_hal_spi.c ****     goto error;
 1891              		.loc 1 1444 5
 1892 004a 54E0     		b	.L98
 1893              	.L99:
1445:Drivers/STM32F1xx_HAL_Driver/Src/stm32f1xx_hal_spi.c ****   }
1446:Drivers/STM32F1xx_HAL_Driver/Src/stm32f1xx_hal_spi.c **** 
1447:Drivers/STM32F1xx_HAL_Driver/Src/stm32f1xx_hal_spi.c ****   /* Set the transaction information */
1448:Drivers/STM32F1xx_HAL_Driver/Src/stm32f1xx_hal_spi.c ****   hspi->State       = HAL_SPI_STATE_BUSY_TX;
 1894              		.loc 1 1448 21
 1895 004c FB68     		ldr	r3, [r7, #12]
 1896 004e 0322     		movs	r2, #3
 1897 0050 83F85120 		strb	r2, [r3, #81]
1449:Drivers/STM32F1xx_HAL_Driver/Src/stm32f1xx_hal_spi.c ****   hspi->ErrorCode   = HAL_SPI_ERROR_NONE;
 1898              		.loc 1 1449 21
 1899 0054 FB68     		ldr	r3, [r7, #12]
 1900 0056 0022     		movs	r2, #0
 1901 0058 5A65     		str	r2, [r3, #84]
1450:Drivers/STM32F1xx_HAL_Driver/Src/stm32f1xx_hal_spi.c ****   hspi->pTxBuffPtr  = (uint8_t *)pData;
 1902              		.loc 1 1450 21
 1903 005a FB68     		ldr	r3, [r7, #12]
 1904 005c BA68     		ldr	r2, [r7, #8]
 1905 005e 1A63     		str	r2, [r3, #48]
1451:Drivers/STM32F1xx_HAL_Driver/Src/stm32f1xx_hal_spi.c ****   hspi->TxXferSize  = Size;
 1906              		.loc 1 1451 21
 1907 0060 FB68     		ldr	r3, [r7, #12]
 1908 0062 FA88     		ldrh	r2, [r7, #6]	@ movhi
 1909 0064 9A86     		strh	r2, [r3, #52]	@ movhi
1452:Drivers/STM32F1xx_HAL_Driver/Src/stm32f1xx_hal_spi.c ****   hspi->TxXferCount = Size;
 1910              		.loc 1 1452 21
ARM GAS  C:\Users\Matvey\AppData\Local\Temp\ccf8E5QD.s 			page 60


 1911 0066 FB68     		ldr	r3, [r7, #12]
 1912 0068 FA88     		ldrh	r2, [r7, #6]	@ movhi
 1913 006a DA86     		strh	r2, [r3, #54]	@ movhi
1453:Drivers/STM32F1xx_HAL_Driver/Src/stm32f1xx_hal_spi.c **** 
1454:Drivers/STM32F1xx_HAL_Driver/Src/stm32f1xx_hal_spi.c ****   /* Init field not used in handle to zero */
1455:Drivers/STM32F1xx_HAL_Driver/Src/stm32f1xx_hal_spi.c ****   hspi->pRxBuffPtr  = (uint8_t *)NULL;
 1914              		.loc 1 1455 21
 1915 006c FB68     		ldr	r3, [r7, #12]
 1916 006e 0022     		movs	r2, #0
 1917 0070 9A63     		str	r2, [r3, #56]
1456:Drivers/STM32F1xx_HAL_Driver/Src/stm32f1xx_hal_spi.c ****   hspi->RxXferSize  = 0U;
 1918              		.loc 1 1456 21
 1919 0072 FB68     		ldr	r3, [r7, #12]
 1920 0074 0022     		movs	r2, #0
 1921 0076 9A87     		strh	r2, [r3, #60]	@ movhi
1457:Drivers/STM32F1xx_HAL_Driver/Src/stm32f1xx_hal_spi.c ****   hspi->RxXferCount = 0U;
 1922              		.loc 1 1457 21
 1923 0078 FB68     		ldr	r3, [r7, #12]
 1924 007a 0022     		movs	r2, #0
 1925 007c DA87     		strh	r2, [r3, #62]	@ movhi
1458:Drivers/STM32F1xx_HAL_Driver/Src/stm32f1xx_hal_spi.c ****   hspi->RxISR       = NULL;
 1926              		.loc 1 1458 21
 1927 007e FB68     		ldr	r3, [r7, #12]
 1928 0080 0022     		movs	r2, #0
 1929 0082 1A64     		str	r2, [r3, #64]
1459:Drivers/STM32F1xx_HAL_Driver/Src/stm32f1xx_hal_spi.c **** 
1460:Drivers/STM32F1xx_HAL_Driver/Src/stm32f1xx_hal_spi.c ****   /* Set the function for IT treatment */
1461:Drivers/STM32F1xx_HAL_Driver/Src/stm32f1xx_hal_spi.c ****   if (hspi->Init.DataSize > SPI_DATASIZE_8BIT)
 1930              		.loc 1 1461 17
 1931 0084 FB68     		ldr	r3, [r7, #12]
 1932 0086 DB68     		ldr	r3, [r3, #12]
 1933              		.loc 1 1461 6
 1934 0088 002B     		cmp	r3, #0
 1935 008a 03D0     		beq	.L100
1462:Drivers/STM32F1xx_HAL_Driver/Src/stm32f1xx_hal_spi.c ****   {
1463:Drivers/STM32F1xx_HAL_Driver/Src/stm32f1xx_hal_spi.c ****     hspi->TxISR = SPI_TxISR_16BIT;
 1936              		.loc 1 1463 17
 1937 008c FB68     		ldr	r3, [r7, #12]
 1938 008e 1F4A     		ldr	r2, .L104
 1939 0090 5A64     		str	r2, [r3, #68]
 1940 0092 02E0     		b	.L101
 1941              	.L100:
1464:Drivers/STM32F1xx_HAL_Driver/Src/stm32f1xx_hal_spi.c ****   }
1465:Drivers/STM32F1xx_HAL_Driver/Src/stm32f1xx_hal_spi.c ****   else
1466:Drivers/STM32F1xx_HAL_Driver/Src/stm32f1xx_hal_spi.c ****   {
1467:Drivers/STM32F1xx_HAL_Driver/Src/stm32f1xx_hal_spi.c ****     hspi->TxISR = SPI_TxISR_8BIT;
 1942              		.loc 1 1467 17
 1943 0094 FB68     		ldr	r3, [r7, #12]
 1944 0096 1E4A     		ldr	r2, .L104+4
 1945 0098 5A64     		str	r2, [r3, #68]
 1946              	.L101:
1468:Drivers/STM32F1xx_HAL_Driver/Src/stm32f1xx_hal_spi.c ****   }
1469:Drivers/STM32F1xx_HAL_Driver/Src/stm32f1xx_hal_spi.c **** 
1470:Drivers/STM32F1xx_HAL_Driver/Src/stm32f1xx_hal_spi.c ****   /* Configure communication direction : 1Line */
1471:Drivers/STM32F1xx_HAL_Driver/Src/stm32f1xx_hal_spi.c ****   if (hspi->Init.Direction == SPI_DIRECTION_1LINE)
 1947              		.loc 1 1471 17
 1948 009a FB68     		ldr	r3, [r7, #12]
ARM GAS  C:\Users\Matvey\AppData\Local\Temp\ccf8E5QD.s 			page 61


 1949 009c 9B68     		ldr	r3, [r3, #8]
 1950              		.loc 1 1471 6
 1951 009e B3F5004F 		cmp	r3, #32768
 1952 00a2 0FD1     		bne	.L102
1472:Drivers/STM32F1xx_HAL_Driver/Src/stm32f1xx_hal_spi.c ****   {
1473:Drivers/STM32F1xx_HAL_Driver/Src/stm32f1xx_hal_spi.c ****     /* Disable SPI Peripheral before set 1Line direction (BIDIOE bit) */
1474:Drivers/STM32F1xx_HAL_Driver/Src/stm32f1xx_hal_spi.c ****     __HAL_SPI_DISABLE(hspi);
 1953              		.loc 1 1474 5
 1954 00a4 FB68     		ldr	r3, [r7, #12]
 1955 00a6 1B68     		ldr	r3, [r3]
 1956 00a8 1A68     		ldr	r2, [r3]
 1957 00aa FB68     		ldr	r3, [r7, #12]
 1958 00ac 1B68     		ldr	r3, [r3]
 1959 00ae 22F04002 		bic	r2, r2, #64
 1960 00b2 1A60     		str	r2, [r3]
1475:Drivers/STM32F1xx_HAL_Driver/Src/stm32f1xx_hal_spi.c ****     SPI_1LINE_TX(hspi);
 1961              		.loc 1 1475 5
 1962 00b4 FB68     		ldr	r3, [r7, #12]
 1963 00b6 1B68     		ldr	r3, [r3]
 1964 00b8 1A68     		ldr	r2, [r3]
 1965 00ba FB68     		ldr	r3, [r7, #12]
 1966 00bc 1B68     		ldr	r3, [r3]
 1967 00be 42F48042 		orr	r2, r2, #16384
 1968 00c2 1A60     		str	r2, [r3]
 1969              	.L102:
1476:Drivers/STM32F1xx_HAL_Driver/Src/stm32f1xx_hal_spi.c ****   }
1477:Drivers/STM32F1xx_HAL_Driver/Src/stm32f1xx_hal_spi.c **** 
1478:Drivers/STM32F1xx_HAL_Driver/Src/stm32f1xx_hal_spi.c **** #if (USE_SPI_CRC != 0U)
1479:Drivers/STM32F1xx_HAL_Driver/Src/stm32f1xx_hal_spi.c ****   /* Reset CRC Calculation */
1480:Drivers/STM32F1xx_HAL_Driver/Src/stm32f1xx_hal_spi.c ****   if (hspi->Init.CRCCalculation == SPI_CRCCALCULATION_ENABLE)
1481:Drivers/STM32F1xx_HAL_Driver/Src/stm32f1xx_hal_spi.c ****   {
1482:Drivers/STM32F1xx_HAL_Driver/Src/stm32f1xx_hal_spi.c ****     SPI_RESET_CRC(hspi);
1483:Drivers/STM32F1xx_HAL_Driver/Src/stm32f1xx_hal_spi.c ****   }
1484:Drivers/STM32F1xx_HAL_Driver/Src/stm32f1xx_hal_spi.c **** #endif /* USE_SPI_CRC */
1485:Drivers/STM32F1xx_HAL_Driver/Src/stm32f1xx_hal_spi.c **** 
1486:Drivers/STM32F1xx_HAL_Driver/Src/stm32f1xx_hal_spi.c ****   /* Enable TXE and ERR interrupt */
1487:Drivers/STM32F1xx_HAL_Driver/Src/stm32f1xx_hal_spi.c ****   __HAL_SPI_ENABLE_IT(hspi, (SPI_IT_TXE | SPI_IT_ERR));
 1970              		.loc 1 1487 3
 1971 00c4 FB68     		ldr	r3, [r7, #12]
 1972 00c6 1B68     		ldr	r3, [r3]
 1973 00c8 5A68     		ldr	r2, [r3, #4]
 1974 00ca FB68     		ldr	r3, [r7, #12]
 1975 00cc 1B68     		ldr	r3, [r3]
 1976 00ce 42F0A002 		orr	r2, r2, #160
 1977 00d2 5A60     		str	r2, [r3, #4]
1488:Drivers/STM32F1xx_HAL_Driver/Src/stm32f1xx_hal_spi.c **** 
1489:Drivers/STM32F1xx_HAL_Driver/Src/stm32f1xx_hal_spi.c **** 
1490:Drivers/STM32F1xx_HAL_Driver/Src/stm32f1xx_hal_spi.c ****   /* Check if the SPI is already enabled */
1491:Drivers/STM32F1xx_HAL_Driver/Src/stm32f1xx_hal_spi.c ****   if ((hspi->Instance->CR1 & SPI_CR1_SPE) != SPI_CR1_SPE)
 1978              		.loc 1 1491 12
 1979 00d4 FB68     		ldr	r3, [r7, #12]
 1980 00d6 1B68     		ldr	r3, [r3]
 1981              		.loc 1 1491 22
 1982 00d8 1B68     		ldr	r3, [r3]
 1983              		.loc 1 1491 28
 1984 00da 03F04003 		and	r3, r3, #64
 1985              		.loc 1 1491 6
ARM GAS  C:\Users\Matvey\AppData\Local\Temp\ccf8E5QD.s 			page 62


 1986 00de 402B     		cmp	r3, #64
 1987 00e0 08D0     		beq	.L103
1492:Drivers/STM32F1xx_HAL_Driver/Src/stm32f1xx_hal_spi.c ****   {
1493:Drivers/STM32F1xx_HAL_Driver/Src/stm32f1xx_hal_spi.c ****     /* Enable SPI peripheral */
1494:Drivers/STM32F1xx_HAL_Driver/Src/stm32f1xx_hal_spi.c ****     __HAL_SPI_ENABLE(hspi);
 1988              		.loc 1 1494 5
 1989 00e2 FB68     		ldr	r3, [r7, #12]
 1990 00e4 1B68     		ldr	r3, [r3]
 1991 00e6 1A68     		ldr	r2, [r3]
 1992 00e8 FB68     		ldr	r3, [r7, #12]
 1993 00ea 1B68     		ldr	r3, [r3]
 1994 00ec 42F04002 		orr	r2, r2, #64
 1995 00f0 1A60     		str	r2, [r3]
 1996 00f2 00E0     		b	.L98
 1997              	.L103:
1495:Drivers/STM32F1xx_HAL_Driver/Src/stm32f1xx_hal_spi.c ****   }
1496:Drivers/STM32F1xx_HAL_Driver/Src/stm32f1xx_hal_spi.c **** 
1497:Drivers/STM32F1xx_HAL_Driver/Src/stm32f1xx_hal_spi.c **** error :
 1998              		.loc 1 1497 1
 1999 00f4 00BF     		nop
 2000              	.L98:
1498:Drivers/STM32F1xx_HAL_Driver/Src/stm32f1xx_hal_spi.c ****   __HAL_UNLOCK(hspi);
 2001              		.loc 1 1498 3
 2002 00f6 FB68     		ldr	r3, [r7, #12]
 2003 00f8 0022     		movs	r2, #0
 2004 00fa 83F85020 		strb	r2, [r3, #80]
1499:Drivers/STM32F1xx_HAL_Driver/Src/stm32f1xx_hal_spi.c ****   return errorcode;
 2005              		.loc 1 1499 10
 2006 00fe FB7D     		ldrb	r3, [r7, #23]	@ zero_extendqisi2
 2007              	.L95:
1500:Drivers/STM32F1xx_HAL_Driver/Src/stm32f1xx_hal_spi.c **** }
 2008              		.loc 1 1500 1
 2009 0100 1846     		mov	r0, r3
 2010 0102 1C37     		adds	r7, r7, #28
 2011              	.LCFI40:
 2012              		.cfi_def_cfa_offset 4
 2013 0104 BD46     		mov	sp, r7
 2014              	.LCFI41:
 2015              		.cfi_def_cfa_register 13
 2016              		@ sp needed
 2017 0106 80BC     		pop	{r7}
 2018              	.LCFI42:
 2019              		.cfi_restore 7
 2020              		.cfi_def_cfa_offset 0
 2021 0108 7047     		bx	lr
 2022              	.L105:
 2023 010a 00BF     		.align	2
 2024              	.L104:
 2025 010c 00000000 		.word	SPI_TxISR_16BIT
 2026 0110 00000000 		.word	SPI_TxISR_8BIT
 2027              		.cfi_endproc
 2028              	.LFE72:
 2030              		.section	.text.HAL_SPI_Receive_IT,"ax",%progbits
 2031              		.align	1
 2032              		.global	HAL_SPI_Receive_IT
 2033              		.syntax unified
 2034              		.thumb
ARM GAS  C:\Users\Matvey\AppData\Local\Temp\ccf8E5QD.s 			page 63


 2035              		.thumb_func
 2037              	HAL_SPI_Receive_IT:
 2038              	.LFB73:
1501:Drivers/STM32F1xx_HAL_Driver/Src/stm32f1xx_hal_spi.c **** 
1502:Drivers/STM32F1xx_HAL_Driver/Src/stm32f1xx_hal_spi.c **** /**
1503:Drivers/STM32F1xx_HAL_Driver/Src/stm32f1xx_hal_spi.c ****   * @brief  Receive an amount of data in non-blocking mode with Interrupt.
1504:Drivers/STM32F1xx_HAL_Driver/Src/stm32f1xx_hal_spi.c ****   * @param  hspi pointer to a SPI_HandleTypeDef structure that contains
1505:Drivers/STM32F1xx_HAL_Driver/Src/stm32f1xx_hal_spi.c ****   *               the configuration information for SPI module.
1506:Drivers/STM32F1xx_HAL_Driver/Src/stm32f1xx_hal_spi.c ****   * @param  pData pointer to data buffer
1507:Drivers/STM32F1xx_HAL_Driver/Src/stm32f1xx_hal_spi.c ****   * @param  Size amount of data to be sent
1508:Drivers/STM32F1xx_HAL_Driver/Src/stm32f1xx_hal_spi.c ****   * @retval HAL status
1509:Drivers/STM32F1xx_HAL_Driver/Src/stm32f1xx_hal_spi.c ****   */
1510:Drivers/STM32F1xx_HAL_Driver/Src/stm32f1xx_hal_spi.c **** HAL_StatusTypeDef HAL_SPI_Receive_IT(SPI_HandleTypeDef *hspi, uint8_t *pData, uint16_t Size)
1511:Drivers/STM32F1xx_HAL_Driver/Src/stm32f1xx_hal_spi.c **** {
 2039              		.loc 1 1511 1
 2040              		.cfi_startproc
 2041              		@ args = 0, pretend = 0, frame = 24
 2042              		@ frame_needed = 1, uses_anonymous_args = 0
 2043 0000 80B5     		push	{r7, lr}
 2044              	.LCFI43:
 2045              		.cfi_def_cfa_offset 8
 2046              		.cfi_offset 7, -8
 2047              		.cfi_offset 14, -4
 2048 0002 86B0     		sub	sp, sp, #24
 2049              	.LCFI44:
 2050              		.cfi_def_cfa_offset 32
 2051 0004 00AF     		add	r7, sp, #0
 2052              	.LCFI45:
 2053              		.cfi_def_cfa_register 7
 2054 0006 F860     		str	r0, [r7, #12]
 2055 0008 B960     		str	r1, [r7, #8]
 2056 000a 1346     		mov	r3, r2
 2057 000c FB80     		strh	r3, [r7, #6]	@ movhi
1512:Drivers/STM32F1xx_HAL_Driver/Src/stm32f1xx_hal_spi.c ****   HAL_StatusTypeDef errorcode = HAL_OK;
 2058              		.loc 1 1512 21
 2059 000e 0023     		movs	r3, #0
 2060 0010 FB75     		strb	r3, [r7, #23]
1513:Drivers/STM32F1xx_HAL_Driver/Src/stm32f1xx_hal_spi.c **** 
1514:Drivers/STM32F1xx_HAL_Driver/Src/stm32f1xx_hal_spi.c **** 
1515:Drivers/STM32F1xx_HAL_Driver/Src/stm32f1xx_hal_spi.c ****   if (hspi->State != HAL_SPI_STATE_READY)
 2061              		.loc 1 1515 11
 2062 0012 FB68     		ldr	r3, [r7, #12]
 2063 0014 93F85130 		ldrb	r3, [r3, #81]
 2064 0018 DBB2     		uxtb	r3, r3
 2065              		.loc 1 1515 6
 2066 001a 012B     		cmp	r3, #1
 2067 001c 02D0     		beq	.L107
1516:Drivers/STM32F1xx_HAL_Driver/Src/stm32f1xx_hal_spi.c ****   {
1517:Drivers/STM32F1xx_HAL_Driver/Src/stm32f1xx_hal_spi.c ****     errorcode = HAL_BUSY;
 2068              		.loc 1 1517 15
 2069 001e 0223     		movs	r3, #2
 2070 0020 FB75     		strb	r3, [r7, #23]
1518:Drivers/STM32F1xx_HAL_Driver/Src/stm32f1xx_hal_spi.c ****     goto error;
 2071              		.loc 1 1518 5
 2072 0022 7DE0     		b	.L108
 2073              	.L107:
1519:Drivers/STM32F1xx_HAL_Driver/Src/stm32f1xx_hal_spi.c ****   }
ARM GAS  C:\Users\Matvey\AppData\Local\Temp\ccf8E5QD.s 			page 64


1520:Drivers/STM32F1xx_HAL_Driver/Src/stm32f1xx_hal_spi.c **** 
1521:Drivers/STM32F1xx_HAL_Driver/Src/stm32f1xx_hal_spi.c ****   if ((hspi->Init.Direction == SPI_DIRECTION_2LINES) && (hspi->Init.Mode == SPI_MODE_MASTER))
 2074              		.loc 1 1521 18
 2075 0024 FB68     		ldr	r3, [r7, #12]
 2076 0026 9B68     		ldr	r3, [r3, #8]
 2077              		.loc 1 1521 6
 2078 0028 002B     		cmp	r3, #0
 2079 002a 10D1     		bne	.L109
 2080              		.loc 1 1521 68 discriminator 1
 2081 002c FB68     		ldr	r3, [r7, #12]
 2082 002e 5B68     		ldr	r3, [r3, #4]
 2083              		.loc 1 1521 54 discriminator 1
 2084 0030 B3F5827F 		cmp	r3, #260
 2085 0034 0BD1     		bne	.L109
1522:Drivers/STM32F1xx_HAL_Driver/Src/stm32f1xx_hal_spi.c ****   {
1523:Drivers/STM32F1xx_HAL_Driver/Src/stm32f1xx_hal_spi.c ****     hspi->State = HAL_SPI_STATE_BUSY_RX;
 2086              		.loc 1 1523 17
 2087 0036 FB68     		ldr	r3, [r7, #12]
 2088 0038 0422     		movs	r2, #4
 2089 003a 83F85120 		strb	r2, [r3, #81]
1524:Drivers/STM32F1xx_HAL_Driver/Src/stm32f1xx_hal_spi.c ****     /* Call transmit-receive function to send Dummy data on Tx line and generate clock on CLK line 
1525:Drivers/STM32F1xx_HAL_Driver/Src/stm32f1xx_hal_spi.c ****     return HAL_SPI_TransmitReceive_IT(hspi, pData, pData, Size);
 2090              		.loc 1 1525 12
 2091 003e FB88     		ldrh	r3, [r7, #6]
 2092 0040 BA68     		ldr	r2, [r7, #8]
 2093 0042 B968     		ldr	r1, [r7, #8]
 2094 0044 F868     		ldr	r0, [r7, #12]
 2095 0046 FFF7FEFF 		bl	HAL_SPI_TransmitReceive_IT
 2096 004a 0346     		mov	r3, r0
 2097 004c 6DE0     		b	.L110
 2098              	.L109:
1526:Drivers/STM32F1xx_HAL_Driver/Src/stm32f1xx_hal_spi.c ****   }
1527:Drivers/STM32F1xx_HAL_Driver/Src/stm32f1xx_hal_spi.c **** 
1528:Drivers/STM32F1xx_HAL_Driver/Src/stm32f1xx_hal_spi.c ****   /* Process Locked */
1529:Drivers/STM32F1xx_HAL_Driver/Src/stm32f1xx_hal_spi.c ****   __HAL_LOCK(hspi);
 2099              		.loc 1 1529 3
 2100 004e FB68     		ldr	r3, [r7, #12]
 2101 0050 93F85030 		ldrb	r3, [r3, #80]	@ zero_extendqisi2
 2102 0054 012B     		cmp	r3, #1
 2103 0056 01D1     		bne	.L111
 2104              		.loc 1 1529 3 is_stmt 0 discriminator 1
 2105 0058 0223     		movs	r3, #2
 2106 005a 66E0     		b	.L110
 2107              	.L111:
 2108              		.loc 1 1529 3 discriminator 2
 2109 005c FB68     		ldr	r3, [r7, #12]
 2110 005e 0122     		movs	r2, #1
 2111 0060 83F85020 		strb	r2, [r3, #80]
1530:Drivers/STM32F1xx_HAL_Driver/Src/stm32f1xx_hal_spi.c **** 
1531:Drivers/STM32F1xx_HAL_Driver/Src/stm32f1xx_hal_spi.c ****   if ((pData == NULL) || (Size == 0U))
 2112              		.loc 1 1531 6 is_stmt 1 discriminator 2
 2113 0064 BB68     		ldr	r3, [r7, #8]
 2114 0066 002B     		cmp	r3, #0
 2115 0068 02D0     		beq	.L112
 2116              		.loc 1 1531 23 discriminator 1
 2117 006a FB88     		ldrh	r3, [r7, #6]
 2118 006c 002B     		cmp	r3, #0
ARM GAS  C:\Users\Matvey\AppData\Local\Temp\ccf8E5QD.s 			page 65


 2119 006e 02D1     		bne	.L113
 2120              	.L112:
1532:Drivers/STM32F1xx_HAL_Driver/Src/stm32f1xx_hal_spi.c ****   {
1533:Drivers/STM32F1xx_HAL_Driver/Src/stm32f1xx_hal_spi.c ****     errorcode = HAL_ERROR;
 2121              		.loc 1 1533 15
 2122 0070 0123     		movs	r3, #1
 2123 0072 FB75     		strb	r3, [r7, #23]
1534:Drivers/STM32F1xx_HAL_Driver/Src/stm32f1xx_hal_spi.c ****     goto error;
 2124              		.loc 1 1534 5
 2125 0074 54E0     		b	.L108
 2126              	.L113:
1535:Drivers/STM32F1xx_HAL_Driver/Src/stm32f1xx_hal_spi.c ****   }
1536:Drivers/STM32F1xx_HAL_Driver/Src/stm32f1xx_hal_spi.c **** 
1537:Drivers/STM32F1xx_HAL_Driver/Src/stm32f1xx_hal_spi.c ****   /* Set the transaction information */
1538:Drivers/STM32F1xx_HAL_Driver/Src/stm32f1xx_hal_spi.c ****   hspi->State       = HAL_SPI_STATE_BUSY_RX;
 2127              		.loc 1 1538 21
 2128 0076 FB68     		ldr	r3, [r7, #12]
 2129 0078 0422     		movs	r2, #4
 2130 007a 83F85120 		strb	r2, [r3, #81]
1539:Drivers/STM32F1xx_HAL_Driver/Src/stm32f1xx_hal_spi.c ****   hspi->ErrorCode   = HAL_SPI_ERROR_NONE;
 2131              		.loc 1 1539 21
 2132 007e FB68     		ldr	r3, [r7, #12]
 2133 0080 0022     		movs	r2, #0
 2134 0082 5A65     		str	r2, [r3, #84]
1540:Drivers/STM32F1xx_HAL_Driver/Src/stm32f1xx_hal_spi.c ****   hspi->pRxBuffPtr  = (uint8_t *)pData;
 2135              		.loc 1 1540 21
 2136 0084 FB68     		ldr	r3, [r7, #12]
 2137 0086 BA68     		ldr	r2, [r7, #8]
 2138 0088 9A63     		str	r2, [r3, #56]
1541:Drivers/STM32F1xx_HAL_Driver/Src/stm32f1xx_hal_spi.c ****   hspi->RxXferSize  = Size;
 2139              		.loc 1 1541 21
 2140 008a FB68     		ldr	r3, [r7, #12]
 2141 008c FA88     		ldrh	r2, [r7, #6]	@ movhi
 2142 008e 9A87     		strh	r2, [r3, #60]	@ movhi
1542:Drivers/STM32F1xx_HAL_Driver/Src/stm32f1xx_hal_spi.c ****   hspi->RxXferCount = Size;
 2143              		.loc 1 1542 21
 2144 0090 FB68     		ldr	r3, [r7, #12]
 2145 0092 FA88     		ldrh	r2, [r7, #6]	@ movhi
 2146 0094 DA87     		strh	r2, [r3, #62]	@ movhi
1543:Drivers/STM32F1xx_HAL_Driver/Src/stm32f1xx_hal_spi.c **** 
1544:Drivers/STM32F1xx_HAL_Driver/Src/stm32f1xx_hal_spi.c ****   /* Init field not used in handle to zero */
1545:Drivers/STM32F1xx_HAL_Driver/Src/stm32f1xx_hal_spi.c ****   hspi->pTxBuffPtr  = (uint8_t *)NULL;
 2147              		.loc 1 1545 21
 2148 0096 FB68     		ldr	r3, [r7, #12]
 2149 0098 0022     		movs	r2, #0
 2150 009a 1A63     		str	r2, [r3, #48]
1546:Drivers/STM32F1xx_HAL_Driver/Src/stm32f1xx_hal_spi.c ****   hspi->TxXferSize  = 0U;
 2151              		.loc 1 1546 21
 2152 009c FB68     		ldr	r3, [r7, #12]
 2153 009e 0022     		movs	r2, #0
 2154 00a0 9A86     		strh	r2, [r3, #52]	@ movhi
1547:Drivers/STM32F1xx_HAL_Driver/Src/stm32f1xx_hal_spi.c ****   hspi->TxXferCount = 0U;
 2155              		.loc 1 1547 21
 2156 00a2 FB68     		ldr	r3, [r7, #12]
 2157 00a4 0022     		movs	r2, #0
 2158 00a6 DA86     		strh	r2, [r3, #54]	@ movhi
1548:Drivers/STM32F1xx_HAL_Driver/Src/stm32f1xx_hal_spi.c ****   hspi->TxISR       = NULL;
ARM GAS  C:\Users\Matvey\AppData\Local\Temp\ccf8E5QD.s 			page 66


 2159              		.loc 1 1548 21
 2160 00a8 FB68     		ldr	r3, [r7, #12]
 2161 00aa 0022     		movs	r2, #0
 2162 00ac 5A64     		str	r2, [r3, #68]
1549:Drivers/STM32F1xx_HAL_Driver/Src/stm32f1xx_hal_spi.c **** 
1550:Drivers/STM32F1xx_HAL_Driver/Src/stm32f1xx_hal_spi.c ****   /* Set the function for IT treatment */
1551:Drivers/STM32F1xx_HAL_Driver/Src/stm32f1xx_hal_spi.c ****   if (hspi->Init.DataSize > SPI_DATASIZE_8BIT)
 2163              		.loc 1 1551 17
 2164 00ae FB68     		ldr	r3, [r7, #12]
 2165 00b0 DB68     		ldr	r3, [r3, #12]
 2166              		.loc 1 1551 6
 2167 00b2 002B     		cmp	r3, #0
 2168 00b4 03D0     		beq	.L114
1552:Drivers/STM32F1xx_HAL_Driver/Src/stm32f1xx_hal_spi.c ****   {
1553:Drivers/STM32F1xx_HAL_Driver/Src/stm32f1xx_hal_spi.c ****     hspi->RxISR = SPI_RxISR_16BIT;
 2169              		.loc 1 1553 17
 2170 00b6 FB68     		ldr	r3, [r7, #12]
 2171 00b8 1E4A     		ldr	r2, .L118
 2172 00ba 1A64     		str	r2, [r3, #64]
 2173 00bc 02E0     		b	.L115
 2174              	.L114:
1554:Drivers/STM32F1xx_HAL_Driver/Src/stm32f1xx_hal_spi.c ****   }
1555:Drivers/STM32F1xx_HAL_Driver/Src/stm32f1xx_hal_spi.c ****   else
1556:Drivers/STM32F1xx_HAL_Driver/Src/stm32f1xx_hal_spi.c ****   {
1557:Drivers/STM32F1xx_HAL_Driver/Src/stm32f1xx_hal_spi.c ****     hspi->RxISR = SPI_RxISR_8BIT;
 2175              		.loc 1 1557 17
 2176 00be FB68     		ldr	r3, [r7, #12]
 2177 00c0 1D4A     		ldr	r2, .L118+4
 2178 00c2 1A64     		str	r2, [r3, #64]
 2179              	.L115:
1558:Drivers/STM32F1xx_HAL_Driver/Src/stm32f1xx_hal_spi.c ****   }
1559:Drivers/STM32F1xx_HAL_Driver/Src/stm32f1xx_hal_spi.c **** 
1560:Drivers/STM32F1xx_HAL_Driver/Src/stm32f1xx_hal_spi.c ****   /* Configure communication direction : 1Line */
1561:Drivers/STM32F1xx_HAL_Driver/Src/stm32f1xx_hal_spi.c ****   if (hspi->Init.Direction == SPI_DIRECTION_1LINE)
 2180              		.loc 1 1561 17
 2181 00c4 FB68     		ldr	r3, [r7, #12]
 2182 00c6 9B68     		ldr	r3, [r3, #8]
 2183              		.loc 1 1561 6
 2184 00c8 B3F5004F 		cmp	r3, #32768
 2185 00cc 0FD1     		bne	.L116
1562:Drivers/STM32F1xx_HAL_Driver/Src/stm32f1xx_hal_spi.c ****   {
1563:Drivers/STM32F1xx_HAL_Driver/Src/stm32f1xx_hal_spi.c ****     /* Disable SPI Peripheral before set 1Line direction (BIDIOE bit) */
1564:Drivers/STM32F1xx_HAL_Driver/Src/stm32f1xx_hal_spi.c ****     __HAL_SPI_DISABLE(hspi);
 2186              		.loc 1 1564 5
 2187 00ce FB68     		ldr	r3, [r7, #12]
 2188 00d0 1B68     		ldr	r3, [r3]
 2189 00d2 1A68     		ldr	r2, [r3]
 2190 00d4 FB68     		ldr	r3, [r7, #12]
 2191 00d6 1B68     		ldr	r3, [r3]
 2192 00d8 22F04002 		bic	r2, r2, #64
 2193 00dc 1A60     		str	r2, [r3]
1565:Drivers/STM32F1xx_HAL_Driver/Src/stm32f1xx_hal_spi.c ****     SPI_1LINE_RX(hspi);
 2194              		.loc 1 1565 5
 2195 00de FB68     		ldr	r3, [r7, #12]
 2196 00e0 1B68     		ldr	r3, [r3]
 2197 00e2 1A68     		ldr	r2, [r3]
 2198 00e4 FB68     		ldr	r3, [r7, #12]
ARM GAS  C:\Users\Matvey\AppData\Local\Temp\ccf8E5QD.s 			page 67


 2199 00e6 1B68     		ldr	r3, [r3]
 2200 00e8 22F48042 		bic	r2, r2, #16384
 2201 00ec 1A60     		str	r2, [r3]
 2202              	.L116:
1566:Drivers/STM32F1xx_HAL_Driver/Src/stm32f1xx_hal_spi.c ****   }
1567:Drivers/STM32F1xx_HAL_Driver/Src/stm32f1xx_hal_spi.c **** 
1568:Drivers/STM32F1xx_HAL_Driver/Src/stm32f1xx_hal_spi.c **** #if (USE_SPI_CRC != 0U)
1569:Drivers/STM32F1xx_HAL_Driver/Src/stm32f1xx_hal_spi.c ****   /* Reset CRC Calculation */
1570:Drivers/STM32F1xx_HAL_Driver/Src/stm32f1xx_hal_spi.c ****   if (hspi->Init.CRCCalculation == SPI_CRCCALCULATION_ENABLE)
1571:Drivers/STM32F1xx_HAL_Driver/Src/stm32f1xx_hal_spi.c ****   {
1572:Drivers/STM32F1xx_HAL_Driver/Src/stm32f1xx_hal_spi.c ****     SPI_RESET_CRC(hspi);
1573:Drivers/STM32F1xx_HAL_Driver/Src/stm32f1xx_hal_spi.c ****   }
1574:Drivers/STM32F1xx_HAL_Driver/Src/stm32f1xx_hal_spi.c **** #endif /* USE_SPI_CRC */
1575:Drivers/STM32F1xx_HAL_Driver/Src/stm32f1xx_hal_spi.c **** 
1576:Drivers/STM32F1xx_HAL_Driver/Src/stm32f1xx_hal_spi.c ****   /* Enable TXE and ERR interrupt */
1577:Drivers/STM32F1xx_HAL_Driver/Src/stm32f1xx_hal_spi.c ****   __HAL_SPI_ENABLE_IT(hspi, (SPI_IT_RXNE | SPI_IT_ERR));
 2203              		.loc 1 1577 3
 2204 00ee FB68     		ldr	r3, [r7, #12]
 2205 00f0 1B68     		ldr	r3, [r3]
 2206 00f2 5A68     		ldr	r2, [r3, #4]
 2207 00f4 FB68     		ldr	r3, [r7, #12]
 2208 00f6 1B68     		ldr	r3, [r3]
 2209 00f8 42F06002 		orr	r2, r2, #96
 2210 00fc 5A60     		str	r2, [r3, #4]
1578:Drivers/STM32F1xx_HAL_Driver/Src/stm32f1xx_hal_spi.c **** 
1579:Drivers/STM32F1xx_HAL_Driver/Src/stm32f1xx_hal_spi.c ****   /* Note : The SPI must be enabled after unlocking current process
1580:Drivers/STM32F1xx_HAL_Driver/Src/stm32f1xx_hal_spi.c ****             to avoid the risk of SPI interrupt handle execution before current
1581:Drivers/STM32F1xx_HAL_Driver/Src/stm32f1xx_hal_spi.c ****             process unlock */
1582:Drivers/STM32F1xx_HAL_Driver/Src/stm32f1xx_hal_spi.c **** 
1583:Drivers/STM32F1xx_HAL_Driver/Src/stm32f1xx_hal_spi.c ****   /* Check if the SPI is already enabled */
1584:Drivers/STM32F1xx_HAL_Driver/Src/stm32f1xx_hal_spi.c ****   if ((hspi->Instance->CR1 & SPI_CR1_SPE) != SPI_CR1_SPE)
 2211              		.loc 1 1584 12
 2212 00fe FB68     		ldr	r3, [r7, #12]
 2213 0100 1B68     		ldr	r3, [r3]
 2214              		.loc 1 1584 22
 2215 0102 1B68     		ldr	r3, [r3]
 2216              		.loc 1 1584 28
 2217 0104 03F04003 		and	r3, r3, #64
 2218              		.loc 1 1584 6
 2219 0108 402B     		cmp	r3, #64
 2220 010a 08D0     		beq	.L117
1585:Drivers/STM32F1xx_HAL_Driver/Src/stm32f1xx_hal_spi.c ****   {
1586:Drivers/STM32F1xx_HAL_Driver/Src/stm32f1xx_hal_spi.c ****     /* Enable SPI peripheral */
1587:Drivers/STM32F1xx_HAL_Driver/Src/stm32f1xx_hal_spi.c ****     __HAL_SPI_ENABLE(hspi);
 2221              		.loc 1 1587 5
 2222 010c FB68     		ldr	r3, [r7, #12]
 2223 010e 1B68     		ldr	r3, [r3]
 2224 0110 1A68     		ldr	r2, [r3]
 2225 0112 FB68     		ldr	r3, [r7, #12]
 2226 0114 1B68     		ldr	r3, [r3]
 2227 0116 42F04002 		orr	r2, r2, #64
 2228 011a 1A60     		str	r2, [r3]
 2229 011c 00E0     		b	.L108
 2230              	.L117:
1588:Drivers/STM32F1xx_HAL_Driver/Src/stm32f1xx_hal_spi.c ****   }
1589:Drivers/STM32F1xx_HAL_Driver/Src/stm32f1xx_hal_spi.c **** 
1590:Drivers/STM32F1xx_HAL_Driver/Src/stm32f1xx_hal_spi.c **** error :
ARM GAS  C:\Users\Matvey\AppData\Local\Temp\ccf8E5QD.s 			page 68


 2231              		.loc 1 1590 1
 2232 011e 00BF     		nop
 2233              	.L108:
1591:Drivers/STM32F1xx_HAL_Driver/Src/stm32f1xx_hal_spi.c ****   /* Process Unlocked */
1592:Drivers/STM32F1xx_HAL_Driver/Src/stm32f1xx_hal_spi.c ****   __HAL_UNLOCK(hspi);
 2234              		.loc 1 1592 3
 2235 0120 FB68     		ldr	r3, [r7, #12]
 2236 0122 0022     		movs	r2, #0
 2237 0124 83F85020 		strb	r2, [r3, #80]
1593:Drivers/STM32F1xx_HAL_Driver/Src/stm32f1xx_hal_spi.c ****   return errorcode;
 2238              		.loc 1 1593 10
 2239 0128 FB7D     		ldrb	r3, [r7, #23]	@ zero_extendqisi2
 2240              	.L110:
1594:Drivers/STM32F1xx_HAL_Driver/Src/stm32f1xx_hal_spi.c **** }
 2241              		.loc 1 1594 1
 2242 012a 1846     		mov	r0, r3
 2243 012c 1837     		adds	r7, r7, #24
 2244              	.LCFI46:
 2245              		.cfi_def_cfa_offset 8
 2246 012e BD46     		mov	sp, r7
 2247              	.LCFI47:
 2248              		.cfi_def_cfa_register 13
 2249              		@ sp needed
 2250 0130 80BD     		pop	{r7, pc}
 2251              	.L119:
 2252 0132 00BF     		.align	2
 2253              	.L118:
 2254 0134 00000000 		.word	SPI_RxISR_16BIT
 2255 0138 00000000 		.word	SPI_RxISR_8BIT
 2256              		.cfi_endproc
 2257              	.LFE73:
 2259              		.section	.text.HAL_SPI_TransmitReceive_IT,"ax",%progbits
 2260              		.align	1
 2261              		.global	HAL_SPI_TransmitReceive_IT
 2262              		.syntax unified
 2263              		.thumb
 2264              		.thumb_func
 2266              	HAL_SPI_TransmitReceive_IT:
 2267              	.LFB74:
1595:Drivers/STM32F1xx_HAL_Driver/Src/stm32f1xx_hal_spi.c **** 
1596:Drivers/STM32F1xx_HAL_Driver/Src/stm32f1xx_hal_spi.c **** /**
1597:Drivers/STM32F1xx_HAL_Driver/Src/stm32f1xx_hal_spi.c ****   * @brief  Transmit and Receive an amount of data in non-blocking mode with Interrupt.
1598:Drivers/STM32F1xx_HAL_Driver/Src/stm32f1xx_hal_spi.c ****   * @param  hspi pointer to a SPI_HandleTypeDef structure that contains
1599:Drivers/STM32F1xx_HAL_Driver/Src/stm32f1xx_hal_spi.c ****   *               the configuration information for SPI module.
1600:Drivers/STM32F1xx_HAL_Driver/Src/stm32f1xx_hal_spi.c ****   * @param  pTxData pointer to transmission data buffer
1601:Drivers/STM32F1xx_HAL_Driver/Src/stm32f1xx_hal_spi.c ****   * @param  pRxData pointer to reception data buffer
1602:Drivers/STM32F1xx_HAL_Driver/Src/stm32f1xx_hal_spi.c ****   * @param  Size amount of data to be sent and received
1603:Drivers/STM32F1xx_HAL_Driver/Src/stm32f1xx_hal_spi.c ****   * @retval HAL status
1604:Drivers/STM32F1xx_HAL_Driver/Src/stm32f1xx_hal_spi.c ****   */
1605:Drivers/STM32F1xx_HAL_Driver/Src/stm32f1xx_hal_spi.c **** HAL_StatusTypeDef HAL_SPI_TransmitReceive_IT(SPI_HandleTypeDef *hspi, uint8_t *pTxData, uint8_t *pR
1606:Drivers/STM32F1xx_HAL_Driver/Src/stm32f1xx_hal_spi.c **** {
 2268              		.loc 1 1606 1
 2269              		.cfi_startproc
 2270              		@ args = 0, pretend = 0, frame = 24
 2271              		@ frame_needed = 1, uses_anonymous_args = 0
 2272              		@ link register save eliminated.
 2273 0000 80B4     		push	{r7}
ARM GAS  C:\Users\Matvey\AppData\Local\Temp\ccf8E5QD.s 			page 69


 2274              	.LCFI48:
 2275              		.cfi_def_cfa_offset 4
 2276              		.cfi_offset 7, -4
 2277 0002 87B0     		sub	sp, sp, #28
 2278              	.LCFI49:
 2279              		.cfi_def_cfa_offset 32
 2280 0004 00AF     		add	r7, sp, #0
 2281              	.LCFI50:
 2282              		.cfi_def_cfa_register 7
 2283 0006 F860     		str	r0, [r7, #12]
 2284 0008 B960     		str	r1, [r7, #8]
 2285 000a 7A60     		str	r2, [r7, #4]
 2286 000c 7B80     		strh	r3, [r7, #2]	@ movhi
1607:Drivers/STM32F1xx_HAL_Driver/Src/stm32f1xx_hal_spi.c ****   uint32_t             tmp_mode;
1608:Drivers/STM32F1xx_HAL_Driver/Src/stm32f1xx_hal_spi.c ****   HAL_SPI_StateTypeDef tmp_state;
1609:Drivers/STM32F1xx_HAL_Driver/Src/stm32f1xx_hal_spi.c ****   HAL_StatusTypeDef    errorcode = HAL_OK;
 2287              		.loc 1 1609 24
 2288 000e 0023     		movs	r3, #0
 2289 0010 FB75     		strb	r3, [r7, #23]
1610:Drivers/STM32F1xx_HAL_Driver/Src/stm32f1xx_hal_spi.c **** 
1611:Drivers/STM32F1xx_HAL_Driver/Src/stm32f1xx_hal_spi.c ****   /* Check Direction parameter */
1612:Drivers/STM32F1xx_HAL_Driver/Src/stm32f1xx_hal_spi.c ****   assert_param(IS_SPI_DIRECTION_2LINES(hspi->Init.Direction));
1613:Drivers/STM32F1xx_HAL_Driver/Src/stm32f1xx_hal_spi.c **** 
1614:Drivers/STM32F1xx_HAL_Driver/Src/stm32f1xx_hal_spi.c ****   /* Process locked */
1615:Drivers/STM32F1xx_HAL_Driver/Src/stm32f1xx_hal_spi.c ****   __HAL_LOCK(hspi);
 2290              		.loc 1 1615 3
 2291 0012 FB68     		ldr	r3, [r7, #12]
 2292 0014 93F85030 		ldrb	r3, [r3, #80]	@ zero_extendqisi2
 2293 0018 012B     		cmp	r3, #1
 2294 001a 01D1     		bne	.L121
 2295              		.loc 1 1615 3 is_stmt 0 discriminator 1
 2296 001c 0223     		movs	r3, #2
 2297 001e 75E0     		b	.L122
 2298              	.L121:
 2299              		.loc 1 1615 3 discriminator 2
 2300 0020 FB68     		ldr	r3, [r7, #12]
 2301 0022 0122     		movs	r2, #1
 2302 0024 83F85020 		strb	r2, [r3, #80]
1616:Drivers/STM32F1xx_HAL_Driver/Src/stm32f1xx_hal_spi.c **** 
1617:Drivers/STM32F1xx_HAL_Driver/Src/stm32f1xx_hal_spi.c ****   /* Init temporary variables */
1618:Drivers/STM32F1xx_HAL_Driver/Src/stm32f1xx_hal_spi.c ****   tmp_state           = hspi->State;
 2303              		.loc 1 1618 23 is_stmt 1 discriminator 2
 2304 0028 FB68     		ldr	r3, [r7, #12]
 2305 002a 93F85130 		ldrb	r3, [r3, #81]
 2306 002e BB75     		strb	r3, [r7, #22]
1619:Drivers/STM32F1xx_HAL_Driver/Src/stm32f1xx_hal_spi.c ****   tmp_mode            = hspi->Init.Mode;
 2307              		.loc 1 1619 23 discriminator 2
 2308 0030 FB68     		ldr	r3, [r7, #12]
 2309 0032 5B68     		ldr	r3, [r3, #4]
 2310 0034 3B61     		str	r3, [r7, #16]
1620:Drivers/STM32F1xx_HAL_Driver/Src/stm32f1xx_hal_spi.c **** 
1621:Drivers/STM32F1xx_HAL_Driver/Src/stm32f1xx_hal_spi.c ****   if (!((tmp_state == HAL_SPI_STATE_READY) || \
 2311              		.loc 1 1621 6 discriminator 2
 2312 0036 BB7D     		ldrb	r3, [r7, #22]	@ zero_extendqisi2
 2313 0038 012B     		cmp	r3, #1
 2314 003a 0DD0     		beq	.L123
 2315              		.loc 1 1621 7 discriminator 1
ARM GAS  C:\Users\Matvey\AppData\Local\Temp\ccf8E5QD.s 			page 70


 2316 003c 3B69     		ldr	r3, [r7, #16]
 2317 003e B3F5827F 		cmp	r3, #260
 2318 0042 06D1     		bne	.L124
1622:Drivers/STM32F1xx_HAL_Driver/Src/stm32f1xx_hal_spi.c ****         ((tmp_mode == SPI_MODE_MASTER) && (hspi->Init.Direction == SPI_DIRECTION_2LINES) && (tmp_st
 2319              		.loc 1 1622 54
 2320 0044 FB68     		ldr	r3, [r7, #12]
 2321 0046 9B68     		ldr	r3, [r3, #8]
 2322              		.loc 1 1622 40
 2323 0048 002B     		cmp	r3, #0
 2324 004a 02D1     		bne	.L124
 2325              		.loc 1 1622 90 discriminator 1
 2326 004c BB7D     		ldrb	r3, [r7, #22]	@ zero_extendqisi2
