ARM GAS  C:\Users\Matvey\AppData\Local\Temp\cctkve6j.s 			page 1


   1              		.cpu cortex-m3
   2              		.arch armv7-m
   3              		.fpu softvfp
   4              		.eabi_attribute 20, 1
   5              		.eabi_attribute 21, 1
   6              		.eabi_attribute 23, 3
   7              		.eabi_attribute 24, 1
   8              		.eabi_attribute 25, 1
   9              		.eabi_attribute 26, 1
  10              		.eabi_attribute 30, 6
  11              		.eabi_attribute 34, 1
  12              		.eabi_attribute 18, 4
  13              		.file	"stm32f1xx_hal_flash_ex.c"
  14              		.text
  15              	.Ltext0:
  16              		.cfi_sections	.debug_frame
  17              		.section	.text.HAL_FLASHEx_Erase,"ax",%progbits
  18              		.align	1
  19              		.global	HAL_FLASHEx_Erase
  20              		.syntax unified
  21              		.thumb
  22              		.thumb_func
  24              	HAL_FLASHEx_Erase:
  25              	.LFB65:
  26              		.file 1 "Drivers/STM32F1xx_HAL_Driver/Src/stm32f1xx_hal_flash_ex.c"
   1:Drivers/STM32F1xx_HAL_Driver/Src/stm32f1xx_hal_flash_ex.c **** /**
   2:Drivers/STM32F1xx_HAL_Driver/Src/stm32f1xx_hal_flash_ex.c ****   ******************************************************************************
   3:Drivers/STM32F1xx_HAL_Driver/Src/stm32f1xx_hal_flash_ex.c ****   * @file    stm32f1xx_hal_flash_ex.c
   4:Drivers/STM32F1xx_HAL_Driver/Src/stm32f1xx_hal_flash_ex.c ****   * @author  MCD Application Team
   5:Drivers/STM32F1xx_HAL_Driver/Src/stm32f1xx_hal_flash_ex.c ****   * @brief   Extended FLASH HAL module driver.
   6:Drivers/STM32F1xx_HAL_Driver/Src/stm32f1xx_hal_flash_ex.c ****   *    
   7:Drivers/STM32F1xx_HAL_Driver/Src/stm32f1xx_hal_flash_ex.c ****   *          This file provides firmware functions to manage the following 
   8:Drivers/STM32F1xx_HAL_Driver/Src/stm32f1xx_hal_flash_ex.c ****   *          functionalities of the FLASH peripheral:
   9:Drivers/STM32F1xx_HAL_Driver/Src/stm32f1xx_hal_flash_ex.c ****   *           + Extended Initialization/de-initialization functions
  10:Drivers/STM32F1xx_HAL_Driver/Src/stm32f1xx_hal_flash_ex.c ****   *           + Extended I/O operation functions
  11:Drivers/STM32F1xx_HAL_Driver/Src/stm32f1xx_hal_flash_ex.c ****   *           + Extended Peripheral Control functions 
  12:Drivers/STM32F1xx_HAL_Driver/Src/stm32f1xx_hal_flash_ex.c ****   *         
  13:Drivers/STM32F1xx_HAL_Driver/Src/stm32f1xx_hal_flash_ex.c ****   @verbatim
  14:Drivers/STM32F1xx_HAL_Driver/Src/stm32f1xx_hal_flash_ex.c ****   ==============================================================================
  15:Drivers/STM32F1xx_HAL_Driver/Src/stm32f1xx_hal_flash_ex.c ****                ##### Flash peripheral extended features  #####
  16:Drivers/STM32F1xx_HAL_Driver/Src/stm32f1xx_hal_flash_ex.c ****   ==============================================================================
  17:Drivers/STM32F1xx_HAL_Driver/Src/stm32f1xx_hal_flash_ex.c ****            
  18:Drivers/STM32F1xx_HAL_Driver/Src/stm32f1xx_hal_flash_ex.c ****                       ##### How to use this driver #####
  19:Drivers/STM32F1xx_HAL_Driver/Src/stm32f1xx_hal_flash_ex.c ****   ==============================================================================
  20:Drivers/STM32F1xx_HAL_Driver/Src/stm32f1xx_hal_flash_ex.c ****   [..] This driver provides functions to configure and program the FLASH memory 
  21:Drivers/STM32F1xx_HAL_Driver/Src/stm32f1xx_hal_flash_ex.c ****        of all STM32F1xxx devices. It includes
  22:Drivers/STM32F1xx_HAL_Driver/Src/stm32f1xx_hal_flash_ex.c ****        
  23:Drivers/STM32F1xx_HAL_Driver/Src/stm32f1xx_hal_flash_ex.c ****         (++) Set/Reset the write protection
  24:Drivers/STM32F1xx_HAL_Driver/Src/stm32f1xx_hal_flash_ex.c ****         (++) Program the user Option Bytes
  25:Drivers/STM32F1xx_HAL_Driver/Src/stm32f1xx_hal_flash_ex.c ****         (++) Get the Read protection Level
  26:Drivers/STM32F1xx_HAL_Driver/Src/stm32f1xx_hal_flash_ex.c ****   
  27:Drivers/STM32F1xx_HAL_Driver/Src/stm32f1xx_hal_flash_ex.c ****   @endverbatim
  28:Drivers/STM32F1xx_HAL_Driver/Src/stm32f1xx_hal_flash_ex.c ****   ******************************************************************************
  29:Drivers/STM32F1xx_HAL_Driver/Src/stm32f1xx_hal_flash_ex.c ****   * @attention
  30:Drivers/STM32F1xx_HAL_Driver/Src/stm32f1xx_hal_flash_ex.c ****   *
  31:Drivers/STM32F1xx_HAL_Driver/Src/stm32f1xx_hal_flash_ex.c ****   * Copyright (c) 2016 STMicroelectronics.
  32:Drivers/STM32F1xx_HAL_Driver/Src/stm32f1xx_hal_flash_ex.c ****   * All rights reserved.
ARM GAS  C:\Users\Matvey\AppData\Local\Temp\cctkve6j.s 			page 2


  33:Drivers/STM32F1xx_HAL_Driver/Src/stm32f1xx_hal_flash_ex.c ****   *
  34:Drivers/STM32F1xx_HAL_Driver/Src/stm32f1xx_hal_flash_ex.c ****   * This software is licensed under terms that can be found in the LICENSE file in
  35:Drivers/STM32F1xx_HAL_Driver/Src/stm32f1xx_hal_flash_ex.c ****   * the root directory of this software component.
  36:Drivers/STM32F1xx_HAL_Driver/Src/stm32f1xx_hal_flash_ex.c ****   * If no LICENSE file comes with this software, it is provided AS-IS.
  37:Drivers/STM32F1xx_HAL_Driver/Src/stm32f1xx_hal_flash_ex.c ****   ******************************************************************************
  38:Drivers/STM32F1xx_HAL_Driver/Src/stm32f1xx_hal_flash_ex.c ****   */
  39:Drivers/STM32F1xx_HAL_Driver/Src/stm32f1xx_hal_flash_ex.c **** 
  40:Drivers/STM32F1xx_HAL_Driver/Src/stm32f1xx_hal_flash_ex.c **** /* Includes ------------------------------------------------------------------*/
  41:Drivers/STM32F1xx_HAL_Driver/Src/stm32f1xx_hal_flash_ex.c **** #include "stm32f1xx_hal.h"
  42:Drivers/STM32F1xx_HAL_Driver/Src/stm32f1xx_hal_flash_ex.c **** 
  43:Drivers/STM32F1xx_HAL_Driver/Src/stm32f1xx_hal_flash_ex.c **** /** @addtogroup STM32F1xx_HAL_Driver
  44:Drivers/STM32F1xx_HAL_Driver/Src/stm32f1xx_hal_flash_ex.c ****   * @{
  45:Drivers/STM32F1xx_HAL_Driver/Src/stm32f1xx_hal_flash_ex.c ****   */
  46:Drivers/STM32F1xx_HAL_Driver/Src/stm32f1xx_hal_flash_ex.c **** #ifdef HAL_FLASH_MODULE_ENABLED
  47:Drivers/STM32F1xx_HAL_Driver/Src/stm32f1xx_hal_flash_ex.c **** 
  48:Drivers/STM32F1xx_HAL_Driver/Src/stm32f1xx_hal_flash_ex.c **** /** @addtogroup FLASH
  49:Drivers/STM32F1xx_HAL_Driver/Src/stm32f1xx_hal_flash_ex.c ****   * @{
  50:Drivers/STM32F1xx_HAL_Driver/Src/stm32f1xx_hal_flash_ex.c ****   */
  51:Drivers/STM32F1xx_HAL_Driver/Src/stm32f1xx_hal_flash_ex.c **** /** @addtogroup FLASH_Private_Variables
  52:Drivers/STM32F1xx_HAL_Driver/Src/stm32f1xx_hal_flash_ex.c ****  * @{
  53:Drivers/STM32F1xx_HAL_Driver/Src/stm32f1xx_hal_flash_ex.c ****  */
  54:Drivers/STM32F1xx_HAL_Driver/Src/stm32f1xx_hal_flash_ex.c **** /* Variables used for Erase pages under interruption*/
  55:Drivers/STM32F1xx_HAL_Driver/Src/stm32f1xx_hal_flash_ex.c **** extern FLASH_ProcessTypeDef pFlash;
  56:Drivers/STM32F1xx_HAL_Driver/Src/stm32f1xx_hal_flash_ex.c **** /**
  57:Drivers/STM32F1xx_HAL_Driver/Src/stm32f1xx_hal_flash_ex.c ****   * @}
  58:Drivers/STM32F1xx_HAL_Driver/Src/stm32f1xx_hal_flash_ex.c ****   */
  59:Drivers/STM32F1xx_HAL_Driver/Src/stm32f1xx_hal_flash_ex.c **** 
  60:Drivers/STM32F1xx_HAL_Driver/Src/stm32f1xx_hal_flash_ex.c **** /**
  61:Drivers/STM32F1xx_HAL_Driver/Src/stm32f1xx_hal_flash_ex.c ****   * @}
  62:Drivers/STM32F1xx_HAL_Driver/Src/stm32f1xx_hal_flash_ex.c ****   */
  63:Drivers/STM32F1xx_HAL_Driver/Src/stm32f1xx_hal_flash_ex.c ****   
  64:Drivers/STM32F1xx_HAL_Driver/Src/stm32f1xx_hal_flash_ex.c **** /** @defgroup FLASHEx FLASHEx
  65:Drivers/STM32F1xx_HAL_Driver/Src/stm32f1xx_hal_flash_ex.c ****   * @brief FLASH HAL Extension module driver
  66:Drivers/STM32F1xx_HAL_Driver/Src/stm32f1xx_hal_flash_ex.c ****   * @{
  67:Drivers/STM32F1xx_HAL_Driver/Src/stm32f1xx_hal_flash_ex.c ****   */
  68:Drivers/STM32F1xx_HAL_Driver/Src/stm32f1xx_hal_flash_ex.c **** 
  69:Drivers/STM32F1xx_HAL_Driver/Src/stm32f1xx_hal_flash_ex.c **** /* Private typedef -----------------------------------------------------------*/
  70:Drivers/STM32F1xx_HAL_Driver/Src/stm32f1xx_hal_flash_ex.c **** /* Private define ------------------------------------------------------------*/
  71:Drivers/STM32F1xx_HAL_Driver/Src/stm32f1xx_hal_flash_ex.c **** /** @defgroup FLASHEx_Private_Constants FLASHEx Private Constants
  72:Drivers/STM32F1xx_HAL_Driver/Src/stm32f1xx_hal_flash_ex.c ****  * @{
  73:Drivers/STM32F1xx_HAL_Driver/Src/stm32f1xx_hal_flash_ex.c ****  */
  74:Drivers/STM32F1xx_HAL_Driver/Src/stm32f1xx_hal_flash_ex.c **** #define FLASH_POSITION_IWDGSW_BIT        FLASH_OBR_IWDG_SW_Pos
  75:Drivers/STM32F1xx_HAL_Driver/Src/stm32f1xx_hal_flash_ex.c **** #define FLASH_POSITION_OB_USERDATA0_BIT  FLASH_OBR_DATA0_Pos
  76:Drivers/STM32F1xx_HAL_Driver/Src/stm32f1xx_hal_flash_ex.c **** #define FLASH_POSITION_OB_USERDATA1_BIT  FLASH_OBR_DATA1_Pos
  77:Drivers/STM32F1xx_HAL_Driver/Src/stm32f1xx_hal_flash_ex.c **** /**
  78:Drivers/STM32F1xx_HAL_Driver/Src/stm32f1xx_hal_flash_ex.c ****   * @}
  79:Drivers/STM32F1xx_HAL_Driver/Src/stm32f1xx_hal_flash_ex.c ****   */
  80:Drivers/STM32F1xx_HAL_Driver/Src/stm32f1xx_hal_flash_ex.c **** 
  81:Drivers/STM32F1xx_HAL_Driver/Src/stm32f1xx_hal_flash_ex.c **** /* Private macro -------------------------------------------------------------*/
  82:Drivers/STM32F1xx_HAL_Driver/Src/stm32f1xx_hal_flash_ex.c **** /** @defgroup FLASHEx_Private_Macros FLASHEx Private Macros
  83:Drivers/STM32F1xx_HAL_Driver/Src/stm32f1xx_hal_flash_ex.c ****   * @{
  84:Drivers/STM32F1xx_HAL_Driver/Src/stm32f1xx_hal_flash_ex.c ****   */
  85:Drivers/STM32F1xx_HAL_Driver/Src/stm32f1xx_hal_flash_ex.c **** /**
  86:Drivers/STM32F1xx_HAL_Driver/Src/stm32f1xx_hal_flash_ex.c ****   * @}
  87:Drivers/STM32F1xx_HAL_Driver/Src/stm32f1xx_hal_flash_ex.c ****   */ 
  88:Drivers/STM32F1xx_HAL_Driver/Src/stm32f1xx_hal_flash_ex.c **** 
  89:Drivers/STM32F1xx_HAL_Driver/Src/stm32f1xx_hal_flash_ex.c **** /* Private variables ---------------------------------------------------------*/
ARM GAS  C:\Users\Matvey\AppData\Local\Temp\cctkve6j.s 			page 3


  90:Drivers/STM32F1xx_HAL_Driver/Src/stm32f1xx_hal_flash_ex.c **** /* Private function prototypes -----------------------------------------------*/
  91:Drivers/STM32F1xx_HAL_Driver/Src/stm32f1xx_hal_flash_ex.c **** /** @defgroup FLASHEx_Private_Functions FLASHEx Private Functions
  92:Drivers/STM32F1xx_HAL_Driver/Src/stm32f1xx_hal_flash_ex.c ****  * @{
  93:Drivers/STM32F1xx_HAL_Driver/Src/stm32f1xx_hal_flash_ex.c ****  */
  94:Drivers/STM32F1xx_HAL_Driver/Src/stm32f1xx_hal_flash_ex.c **** /* Erase operations */
  95:Drivers/STM32F1xx_HAL_Driver/Src/stm32f1xx_hal_flash_ex.c **** static void              FLASH_MassErase(uint32_t Banks);
  96:Drivers/STM32F1xx_HAL_Driver/Src/stm32f1xx_hal_flash_ex.c **** void    FLASH_PageErase(uint32_t PageAddress);
  97:Drivers/STM32F1xx_HAL_Driver/Src/stm32f1xx_hal_flash_ex.c **** 
  98:Drivers/STM32F1xx_HAL_Driver/Src/stm32f1xx_hal_flash_ex.c **** /* Option bytes control */
  99:Drivers/STM32F1xx_HAL_Driver/Src/stm32f1xx_hal_flash_ex.c **** static HAL_StatusTypeDef FLASH_OB_EnableWRP(uint32_t WriteProtectPage);
 100:Drivers/STM32F1xx_HAL_Driver/Src/stm32f1xx_hal_flash_ex.c **** static HAL_StatusTypeDef FLASH_OB_DisableWRP(uint32_t WriteProtectPage);
 101:Drivers/STM32F1xx_HAL_Driver/Src/stm32f1xx_hal_flash_ex.c **** static HAL_StatusTypeDef FLASH_OB_RDP_LevelConfig(uint8_t ReadProtectLevel);
 102:Drivers/STM32F1xx_HAL_Driver/Src/stm32f1xx_hal_flash_ex.c **** static HAL_StatusTypeDef FLASH_OB_UserConfig(uint8_t UserConfig);
 103:Drivers/STM32F1xx_HAL_Driver/Src/stm32f1xx_hal_flash_ex.c **** static HAL_StatusTypeDef FLASH_OB_ProgramData(uint32_t Address, uint8_t Data);
 104:Drivers/STM32F1xx_HAL_Driver/Src/stm32f1xx_hal_flash_ex.c **** static uint32_t          FLASH_OB_GetWRP(void);
 105:Drivers/STM32F1xx_HAL_Driver/Src/stm32f1xx_hal_flash_ex.c **** static uint32_t          FLASH_OB_GetRDP(void);
 106:Drivers/STM32F1xx_HAL_Driver/Src/stm32f1xx_hal_flash_ex.c **** static uint8_t           FLASH_OB_GetUser(void);
 107:Drivers/STM32F1xx_HAL_Driver/Src/stm32f1xx_hal_flash_ex.c **** 
 108:Drivers/STM32F1xx_HAL_Driver/Src/stm32f1xx_hal_flash_ex.c **** /**
 109:Drivers/STM32F1xx_HAL_Driver/Src/stm32f1xx_hal_flash_ex.c ****   * @}
 110:Drivers/STM32F1xx_HAL_Driver/Src/stm32f1xx_hal_flash_ex.c ****   */
 111:Drivers/STM32F1xx_HAL_Driver/Src/stm32f1xx_hal_flash_ex.c **** 
 112:Drivers/STM32F1xx_HAL_Driver/Src/stm32f1xx_hal_flash_ex.c **** /* Exported functions ---------------------------------------------------------*/
 113:Drivers/STM32F1xx_HAL_Driver/Src/stm32f1xx_hal_flash_ex.c **** /** @defgroup FLASHEx_Exported_Functions FLASHEx Exported Functions
 114:Drivers/STM32F1xx_HAL_Driver/Src/stm32f1xx_hal_flash_ex.c ****   * @{
 115:Drivers/STM32F1xx_HAL_Driver/Src/stm32f1xx_hal_flash_ex.c ****   */
 116:Drivers/STM32F1xx_HAL_Driver/Src/stm32f1xx_hal_flash_ex.c ****   
 117:Drivers/STM32F1xx_HAL_Driver/Src/stm32f1xx_hal_flash_ex.c **** /** @defgroup FLASHEx_Exported_Functions_Group1 FLASHEx Memory Erasing functions
 118:Drivers/STM32F1xx_HAL_Driver/Src/stm32f1xx_hal_flash_ex.c ****  *  @brief   FLASH Memory Erasing functions
 119:Drivers/STM32F1xx_HAL_Driver/Src/stm32f1xx_hal_flash_ex.c ****   *
 120:Drivers/STM32F1xx_HAL_Driver/Src/stm32f1xx_hal_flash_ex.c **** @verbatim   
 121:Drivers/STM32F1xx_HAL_Driver/Src/stm32f1xx_hal_flash_ex.c ****   ==============================================================================
 122:Drivers/STM32F1xx_HAL_Driver/Src/stm32f1xx_hal_flash_ex.c ****                 ##### FLASH Erasing Programming functions ##### 
 123:Drivers/STM32F1xx_HAL_Driver/Src/stm32f1xx_hal_flash_ex.c ****   ==============================================================================
 124:Drivers/STM32F1xx_HAL_Driver/Src/stm32f1xx_hal_flash_ex.c **** 
 125:Drivers/STM32F1xx_HAL_Driver/Src/stm32f1xx_hal_flash_ex.c ****     [..] The FLASH Memory Erasing functions, includes the following functions:
 126:Drivers/STM32F1xx_HAL_Driver/Src/stm32f1xx_hal_flash_ex.c ****     (+) HAL_FLASHEx_Erase: return only when erase has been done
 127:Drivers/STM32F1xx_HAL_Driver/Src/stm32f1xx_hal_flash_ex.c ****     (+) HAL_FLASHEx_Erase_IT: end of erase is done when HAL_FLASH_EndOfOperationCallback 
 128:Drivers/STM32F1xx_HAL_Driver/Src/stm32f1xx_hal_flash_ex.c ****         is called with parameter 0xFFFFFFFF
 129:Drivers/STM32F1xx_HAL_Driver/Src/stm32f1xx_hal_flash_ex.c **** 
 130:Drivers/STM32F1xx_HAL_Driver/Src/stm32f1xx_hal_flash_ex.c ****     [..] Any operation of erase should follow these steps:
 131:Drivers/STM32F1xx_HAL_Driver/Src/stm32f1xx_hal_flash_ex.c ****     (#) Call the HAL_FLASH_Unlock() function to enable the flash control register and 
 132:Drivers/STM32F1xx_HAL_Driver/Src/stm32f1xx_hal_flash_ex.c ****         program memory access.
 133:Drivers/STM32F1xx_HAL_Driver/Src/stm32f1xx_hal_flash_ex.c ****     (#) Call the desired function to erase page.
 134:Drivers/STM32F1xx_HAL_Driver/Src/stm32f1xx_hal_flash_ex.c ****     (#) Call the HAL_FLASH_Lock() to disable the flash program memory access 
 135:Drivers/STM32F1xx_HAL_Driver/Src/stm32f1xx_hal_flash_ex.c ****        (recommended to protect the FLASH memory against possible unwanted operation).
 136:Drivers/STM32F1xx_HAL_Driver/Src/stm32f1xx_hal_flash_ex.c **** 
 137:Drivers/STM32F1xx_HAL_Driver/Src/stm32f1xx_hal_flash_ex.c **** @endverbatim
 138:Drivers/STM32F1xx_HAL_Driver/Src/stm32f1xx_hal_flash_ex.c ****   * @{
 139:Drivers/STM32F1xx_HAL_Driver/Src/stm32f1xx_hal_flash_ex.c ****   */
 140:Drivers/STM32F1xx_HAL_Driver/Src/stm32f1xx_hal_flash_ex.c ****   
 141:Drivers/STM32F1xx_HAL_Driver/Src/stm32f1xx_hal_flash_ex.c **** 
 142:Drivers/STM32F1xx_HAL_Driver/Src/stm32f1xx_hal_flash_ex.c **** /**
 143:Drivers/STM32F1xx_HAL_Driver/Src/stm32f1xx_hal_flash_ex.c ****   * @brief  Perform a mass erase or erase the specified FLASH memory pages
 144:Drivers/STM32F1xx_HAL_Driver/Src/stm32f1xx_hal_flash_ex.c ****   * @note   To correctly run this function, the @ref HAL_FLASH_Unlock() function
 145:Drivers/STM32F1xx_HAL_Driver/Src/stm32f1xx_hal_flash_ex.c ****   *         must be called before.
 146:Drivers/STM32F1xx_HAL_Driver/Src/stm32f1xx_hal_flash_ex.c ****   *         Call the @ref HAL_FLASH_Lock() to disable the flash memory access 
ARM GAS  C:\Users\Matvey\AppData\Local\Temp\cctkve6j.s 			page 4


 147:Drivers/STM32F1xx_HAL_Driver/Src/stm32f1xx_hal_flash_ex.c ****   *         (recommended to protect the FLASH memory against possible unwanted operation)
 148:Drivers/STM32F1xx_HAL_Driver/Src/stm32f1xx_hal_flash_ex.c ****   * @param[in]  pEraseInit pointer to an FLASH_EraseInitTypeDef structure that
 149:Drivers/STM32F1xx_HAL_Driver/Src/stm32f1xx_hal_flash_ex.c ****   *         contains the configuration information for the erasing.
 150:Drivers/STM32F1xx_HAL_Driver/Src/stm32f1xx_hal_flash_ex.c ****   *
 151:Drivers/STM32F1xx_HAL_Driver/Src/stm32f1xx_hal_flash_ex.c ****   * @param[out]  PageError pointer to variable  that
 152:Drivers/STM32F1xx_HAL_Driver/Src/stm32f1xx_hal_flash_ex.c ****   *         contains the configuration information on faulty page in case of error
 153:Drivers/STM32F1xx_HAL_Driver/Src/stm32f1xx_hal_flash_ex.c ****   *         (0xFFFFFFFF means that all the pages have been correctly erased)
 154:Drivers/STM32F1xx_HAL_Driver/Src/stm32f1xx_hal_flash_ex.c ****   *
 155:Drivers/STM32F1xx_HAL_Driver/Src/stm32f1xx_hal_flash_ex.c ****   * @retval HAL_StatusTypeDef HAL Status
 156:Drivers/STM32F1xx_HAL_Driver/Src/stm32f1xx_hal_flash_ex.c ****   */
 157:Drivers/STM32F1xx_HAL_Driver/Src/stm32f1xx_hal_flash_ex.c **** HAL_StatusTypeDef HAL_FLASHEx_Erase(FLASH_EraseInitTypeDef *pEraseInit, uint32_t *PageError)
 158:Drivers/STM32F1xx_HAL_Driver/Src/stm32f1xx_hal_flash_ex.c **** {
  27              		.loc 1 158 1
  28              		.cfi_startproc
  29              		@ args = 0, pretend = 0, frame = 16
  30              		@ frame_needed = 1, uses_anonymous_args = 0
  31 0000 80B5     		push	{r7, lr}
  32              	.LCFI0:
  33              		.cfi_def_cfa_offset 8
  34              		.cfi_offset 7, -8
  35              		.cfi_offset 14, -4
  36 0002 84B0     		sub	sp, sp, #16
  37              	.LCFI1:
  38              		.cfi_def_cfa_offset 24
  39 0004 00AF     		add	r7, sp, #0
  40              	.LCFI2:
  41              		.cfi_def_cfa_register 7
  42 0006 7860     		str	r0, [r7, #4]
  43 0008 3960     		str	r1, [r7]
 159:Drivers/STM32F1xx_HAL_Driver/Src/stm32f1xx_hal_flash_ex.c ****   HAL_StatusTypeDef status = HAL_ERROR;
  44              		.loc 1 159 21
  45 000a 0123     		movs	r3, #1
  46 000c FB73     		strb	r3, [r7, #15]
 160:Drivers/STM32F1xx_HAL_Driver/Src/stm32f1xx_hal_flash_ex.c ****   uint32_t address = 0U;
  47              		.loc 1 160 12
  48 000e 0023     		movs	r3, #0
  49 0010 BB60     		str	r3, [r7, #8]
 161:Drivers/STM32F1xx_HAL_Driver/Src/stm32f1xx_hal_flash_ex.c **** 
 162:Drivers/STM32F1xx_HAL_Driver/Src/stm32f1xx_hal_flash_ex.c ****   /* Process Locked */
 163:Drivers/STM32F1xx_HAL_Driver/Src/stm32f1xx_hal_flash_ex.c ****   __HAL_LOCK(&pFlash);
  50              		.loc 1 163 3
  51 0012 2F4B     		ldr	r3, .L9
  52 0014 1B7E     		ldrb	r3, [r3, #24]	@ zero_extendqisi2
  53 0016 012B     		cmp	r3, #1
  54 0018 01D1     		bne	.L2
  55              		.loc 1 163 3 is_stmt 0 discriminator 1
  56 001a 0223     		movs	r3, #2
  57 001c 53E0     		b	.L3
  58              	.L2:
  59              		.loc 1 163 3 discriminator 2
  60 001e 2C4B     		ldr	r3, .L9
  61 0020 0122     		movs	r2, #1
  62 0022 1A76     		strb	r2, [r3, #24]
 164:Drivers/STM32F1xx_HAL_Driver/Src/stm32f1xx_hal_flash_ex.c **** 
 165:Drivers/STM32F1xx_HAL_Driver/Src/stm32f1xx_hal_flash_ex.c ****   /* Check the parameters */
 166:Drivers/STM32F1xx_HAL_Driver/Src/stm32f1xx_hal_flash_ex.c ****   assert_param(IS_FLASH_TYPEERASE(pEraseInit->TypeErase));
 167:Drivers/STM32F1xx_HAL_Driver/Src/stm32f1xx_hal_flash_ex.c **** 
ARM GAS  C:\Users\Matvey\AppData\Local\Temp\cctkve6j.s 			page 5


 168:Drivers/STM32F1xx_HAL_Driver/Src/stm32f1xx_hal_flash_ex.c ****   if (pEraseInit->TypeErase == FLASH_TYPEERASE_MASSERASE)
  63              		.loc 1 168 17 is_stmt 1 discriminator 2
  64 0024 7B68     		ldr	r3, [r7, #4]
  65 0026 1B68     		ldr	r3, [r3]
  66              		.loc 1 168 6 discriminator 2
  67 0028 022B     		cmp	r3, #2
  68 002a 16D1     		bne	.L4
 169:Drivers/STM32F1xx_HAL_Driver/Src/stm32f1xx_hal_flash_ex.c ****   {
 170:Drivers/STM32F1xx_HAL_Driver/Src/stm32f1xx_hal_flash_ex.c **** #if defined(FLASH_BANK2_END)
 171:Drivers/STM32F1xx_HAL_Driver/Src/stm32f1xx_hal_flash_ex.c ****     if (pEraseInit->Banks == FLASH_BANK_BOTH)
 172:Drivers/STM32F1xx_HAL_Driver/Src/stm32f1xx_hal_flash_ex.c ****     {
 173:Drivers/STM32F1xx_HAL_Driver/Src/stm32f1xx_hal_flash_ex.c ****       /* Mass Erase requested for Bank1 and Bank2 */
 174:Drivers/STM32F1xx_HAL_Driver/Src/stm32f1xx_hal_flash_ex.c ****       /* Wait for last operation to be completed */
 175:Drivers/STM32F1xx_HAL_Driver/Src/stm32f1xx_hal_flash_ex.c ****       if ((FLASH_WaitForLastOperation((uint32_t)FLASH_TIMEOUT_VALUE) == HAL_OK) && \
 176:Drivers/STM32F1xx_HAL_Driver/Src/stm32f1xx_hal_flash_ex.c ****           (FLASH_WaitForLastOperationBank2((uint32_t)FLASH_TIMEOUT_VALUE) == HAL_OK))
 177:Drivers/STM32F1xx_HAL_Driver/Src/stm32f1xx_hal_flash_ex.c ****       {
 178:Drivers/STM32F1xx_HAL_Driver/Src/stm32f1xx_hal_flash_ex.c ****         /*Mass erase to be done*/
 179:Drivers/STM32F1xx_HAL_Driver/Src/stm32f1xx_hal_flash_ex.c ****         FLASH_MassErase(FLASH_BANK_BOTH);
 180:Drivers/STM32F1xx_HAL_Driver/Src/stm32f1xx_hal_flash_ex.c ****         
 181:Drivers/STM32F1xx_HAL_Driver/Src/stm32f1xx_hal_flash_ex.c ****         /* Wait for last operation to be completed */
 182:Drivers/STM32F1xx_HAL_Driver/Src/stm32f1xx_hal_flash_ex.c ****         if ((FLASH_WaitForLastOperation((uint32_t)FLASH_TIMEOUT_VALUE) == HAL_OK) && \
 183:Drivers/STM32F1xx_HAL_Driver/Src/stm32f1xx_hal_flash_ex.c ****             (FLASH_WaitForLastOperationBank2((uint32_t)FLASH_TIMEOUT_VALUE) == HAL_OK))
 184:Drivers/STM32F1xx_HAL_Driver/Src/stm32f1xx_hal_flash_ex.c ****         {
 185:Drivers/STM32F1xx_HAL_Driver/Src/stm32f1xx_hal_flash_ex.c ****           status = HAL_OK;
 186:Drivers/STM32F1xx_HAL_Driver/Src/stm32f1xx_hal_flash_ex.c ****         }
 187:Drivers/STM32F1xx_HAL_Driver/Src/stm32f1xx_hal_flash_ex.c ****         
 188:Drivers/STM32F1xx_HAL_Driver/Src/stm32f1xx_hal_flash_ex.c ****         /* If the erase operation is completed, disable the MER Bit */
 189:Drivers/STM32F1xx_HAL_Driver/Src/stm32f1xx_hal_flash_ex.c ****         CLEAR_BIT(FLASH->CR, FLASH_CR_MER);
 190:Drivers/STM32F1xx_HAL_Driver/Src/stm32f1xx_hal_flash_ex.c ****         CLEAR_BIT(FLASH->CR2, FLASH_CR2_MER);
 191:Drivers/STM32F1xx_HAL_Driver/Src/stm32f1xx_hal_flash_ex.c ****       }
 192:Drivers/STM32F1xx_HAL_Driver/Src/stm32f1xx_hal_flash_ex.c ****     }
 193:Drivers/STM32F1xx_HAL_Driver/Src/stm32f1xx_hal_flash_ex.c ****     else if (pEraseInit->Banks == FLASH_BANK_2)
 194:Drivers/STM32F1xx_HAL_Driver/Src/stm32f1xx_hal_flash_ex.c ****     {
 195:Drivers/STM32F1xx_HAL_Driver/Src/stm32f1xx_hal_flash_ex.c ****       /* Mass Erase requested for Bank2 */
 196:Drivers/STM32F1xx_HAL_Driver/Src/stm32f1xx_hal_flash_ex.c ****       /* Wait for last operation to be completed */
 197:Drivers/STM32F1xx_HAL_Driver/Src/stm32f1xx_hal_flash_ex.c ****       if (FLASH_WaitForLastOperationBank2((uint32_t)FLASH_TIMEOUT_VALUE) == HAL_OK)
 198:Drivers/STM32F1xx_HAL_Driver/Src/stm32f1xx_hal_flash_ex.c ****       {
 199:Drivers/STM32F1xx_HAL_Driver/Src/stm32f1xx_hal_flash_ex.c ****         /*Mass erase to be done*/
 200:Drivers/STM32F1xx_HAL_Driver/Src/stm32f1xx_hal_flash_ex.c ****         FLASH_MassErase(FLASH_BANK_2);
 201:Drivers/STM32F1xx_HAL_Driver/Src/stm32f1xx_hal_flash_ex.c ****         
 202:Drivers/STM32F1xx_HAL_Driver/Src/stm32f1xx_hal_flash_ex.c ****         /* Wait for last operation to be completed */
 203:Drivers/STM32F1xx_HAL_Driver/Src/stm32f1xx_hal_flash_ex.c ****         status = FLASH_WaitForLastOperationBank2((uint32_t)FLASH_TIMEOUT_VALUE);
 204:Drivers/STM32F1xx_HAL_Driver/Src/stm32f1xx_hal_flash_ex.c ****         
 205:Drivers/STM32F1xx_HAL_Driver/Src/stm32f1xx_hal_flash_ex.c ****         /* If the erase operation is completed, disable the MER Bit */
 206:Drivers/STM32F1xx_HAL_Driver/Src/stm32f1xx_hal_flash_ex.c ****         CLEAR_BIT(FLASH->CR2, FLASH_CR2_MER);
 207:Drivers/STM32F1xx_HAL_Driver/Src/stm32f1xx_hal_flash_ex.c ****       }
 208:Drivers/STM32F1xx_HAL_Driver/Src/stm32f1xx_hal_flash_ex.c ****     }
 209:Drivers/STM32F1xx_HAL_Driver/Src/stm32f1xx_hal_flash_ex.c ****     else 
 210:Drivers/STM32F1xx_HAL_Driver/Src/stm32f1xx_hal_flash_ex.c **** #endif /* FLASH_BANK2_END */
 211:Drivers/STM32F1xx_HAL_Driver/Src/stm32f1xx_hal_flash_ex.c ****     {
 212:Drivers/STM32F1xx_HAL_Driver/Src/stm32f1xx_hal_flash_ex.c ****       /* Mass Erase requested for Bank1 */
 213:Drivers/STM32F1xx_HAL_Driver/Src/stm32f1xx_hal_flash_ex.c ****       /* Wait for last operation to be completed */
 214:Drivers/STM32F1xx_HAL_Driver/Src/stm32f1xx_hal_flash_ex.c ****       if (FLASH_WaitForLastOperation((uint32_t)FLASH_TIMEOUT_VALUE) == HAL_OK)
  69              		.loc 1 214 11
  70 002c 4CF25030 		movw	r0, #50000
  71 0030 FFF7FEFF 		bl	FLASH_WaitForLastOperation
  72 0034 0346     		mov	r3, r0
ARM GAS  C:\Users\Matvey\AppData\Local\Temp\cctkve6j.s 			page 6


  73              		.loc 1 214 10
  74 0036 002B     		cmp	r3, #0
  75 0038 41D1     		bne	.L5
 215:Drivers/STM32F1xx_HAL_Driver/Src/stm32f1xx_hal_flash_ex.c ****       {
 216:Drivers/STM32F1xx_HAL_Driver/Src/stm32f1xx_hal_flash_ex.c ****         /*Mass erase to be done*/
 217:Drivers/STM32F1xx_HAL_Driver/Src/stm32f1xx_hal_flash_ex.c ****         FLASH_MassErase(FLASH_BANK_1);
  76              		.loc 1 217 9
  77 003a 0120     		movs	r0, #1
  78 003c FFF7FEFF 		bl	FLASH_MassErase
 218:Drivers/STM32F1xx_HAL_Driver/Src/stm32f1xx_hal_flash_ex.c ****         
 219:Drivers/STM32F1xx_HAL_Driver/Src/stm32f1xx_hal_flash_ex.c ****         /* Wait for last operation to be completed */
 220:Drivers/STM32F1xx_HAL_Driver/Src/stm32f1xx_hal_flash_ex.c ****         status = FLASH_WaitForLastOperation((uint32_t)FLASH_TIMEOUT_VALUE);
  79              		.loc 1 220 18
  80 0040 4CF25030 		movw	r0, #50000
  81 0044 FFF7FEFF 		bl	FLASH_WaitForLastOperation
  82 0048 0346     		mov	r3, r0
  83 004a FB73     		strb	r3, [r7, #15]
 221:Drivers/STM32F1xx_HAL_Driver/Src/stm32f1xx_hal_flash_ex.c ****         
 222:Drivers/STM32F1xx_HAL_Driver/Src/stm32f1xx_hal_flash_ex.c ****         /* If the erase operation is completed, disable the MER Bit */
 223:Drivers/STM32F1xx_HAL_Driver/Src/stm32f1xx_hal_flash_ex.c ****         CLEAR_BIT(FLASH->CR, FLASH_CR_MER);
  84              		.loc 1 223 9
  85 004c 214B     		ldr	r3, .L9+4
  86 004e 1B69     		ldr	r3, [r3, #16]
  87 0050 204A     		ldr	r2, .L9+4
  88 0052 23F00403 		bic	r3, r3, #4
  89 0056 1361     		str	r3, [r2, #16]
  90 0058 31E0     		b	.L5
  91              	.L4:
 224:Drivers/STM32F1xx_HAL_Driver/Src/stm32f1xx_hal_flash_ex.c ****       }
 225:Drivers/STM32F1xx_HAL_Driver/Src/stm32f1xx_hal_flash_ex.c ****     }
 226:Drivers/STM32F1xx_HAL_Driver/Src/stm32f1xx_hal_flash_ex.c ****   }
 227:Drivers/STM32F1xx_HAL_Driver/Src/stm32f1xx_hal_flash_ex.c ****   else
 228:Drivers/STM32F1xx_HAL_Driver/Src/stm32f1xx_hal_flash_ex.c ****   {
 229:Drivers/STM32F1xx_HAL_Driver/Src/stm32f1xx_hal_flash_ex.c ****     /* Page Erase is requested */
 230:Drivers/STM32F1xx_HAL_Driver/Src/stm32f1xx_hal_flash_ex.c ****     /* Check the parameters */
 231:Drivers/STM32F1xx_HAL_Driver/Src/stm32f1xx_hal_flash_ex.c ****     assert_param(IS_FLASH_PROGRAM_ADDRESS(pEraseInit->PageAddress));
 232:Drivers/STM32F1xx_HAL_Driver/Src/stm32f1xx_hal_flash_ex.c ****     assert_param(IS_FLASH_NB_PAGES(pEraseInit->PageAddress, pEraseInit->NbPages));
 233:Drivers/STM32F1xx_HAL_Driver/Src/stm32f1xx_hal_flash_ex.c ****     
 234:Drivers/STM32F1xx_HAL_Driver/Src/stm32f1xx_hal_flash_ex.c **** #if defined(FLASH_BANK2_END)
 235:Drivers/STM32F1xx_HAL_Driver/Src/stm32f1xx_hal_flash_ex.c ****     /* Page Erase requested on address located on bank2 */
 236:Drivers/STM32F1xx_HAL_Driver/Src/stm32f1xx_hal_flash_ex.c ****     if(pEraseInit->PageAddress > FLASH_BANK1_END)
 237:Drivers/STM32F1xx_HAL_Driver/Src/stm32f1xx_hal_flash_ex.c ****     {   
 238:Drivers/STM32F1xx_HAL_Driver/Src/stm32f1xx_hal_flash_ex.c ****       /* Wait for last operation to be completed */
 239:Drivers/STM32F1xx_HAL_Driver/Src/stm32f1xx_hal_flash_ex.c ****       if (FLASH_WaitForLastOperationBank2((uint32_t)FLASH_TIMEOUT_VALUE) == HAL_OK)
 240:Drivers/STM32F1xx_HAL_Driver/Src/stm32f1xx_hal_flash_ex.c ****       {
 241:Drivers/STM32F1xx_HAL_Driver/Src/stm32f1xx_hal_flash_ex.c ****         /*Initialization of PageError variable*/
 242:Drivers/STM32F1xx_HAL_Driver/Src/stm32f1xx_hal_flash_ex.c ****         *PageError = 0xFFFFFFFFU;
 243:Drivers/STM32F1xx_HAL_Driver/Src/stm32f1xx_hal_flash_ex.c ****         
 244:Drivers/STM32F1xx_HAL_Driver/Src/stm32f1xx_hal_flash_ex.c ****         /* Erase by page by page to be done*/
 245:Drivers/STM32F1xx_HAL_Driver/Src/stm32f1xx_hal_flash_ex.c ****         for(address = pEraseInit->PageAddress;
 246:Drivers/STM32F1xx_HAL_Driver/Src/stm32f1xx_hal_flash_ex.c ****             address < (pEraseInit->PageAddress + (pEraseInit->NbPages)*FLASH_PAGE_SIZE);
 247:Drivers/STM32F1xx_HAL_Driver/Src/stm32f1xx_hal_flash_ex.c ****             address += FLASH_PAGE_SIZE)
 248:Drivers/STM32F1xx_HAL_Driver/Src/stm32f1xx_hal_flash_ex.c ****         {
 249:Drivers/STM32F1xx_HAL_Driver/Src/stm32f1xx_hal_flash_ex.c ****           FLASH_PageErase(address);
 250:Drivers/STM32F1xx_HAL_Driver/Src/stm32f1xx_hal_flash_ex.c ****           
 251:Drivers/STM32F1xx_HAL_Driver/Src/stm32f1xx_hal_flash_ex.c ****           /* Wait for last operation to be completed */
 252:Drivers/STM32F1xx_HAL_Driver/Src/stm32f1xx_hal_flash_ex.c ****           status = FLASH_WaitForLastOperationBank2((uint32_t)FLASH_TIMEOUT_VALUE);
ARM GAS  C:\Users\Matvey\AppData\Local\Temp\cctkve6j.s 			page 7


 253:Drivers/STM32F1xx_HAL_Driver/Src/stm32f1xx_hal_flash_ex.c ****           
 254:Drivers/STM32F1xx_HAL_Driver/Src/stm32f1xx_hal_flash_ex.c ****           /* If the erase operation is completed, disable the PER Bit */
 255:Drivers/STM32F1xx_HAL_Driver/Src/stm32f1xx_hal_flash_ex.c ****           CLEAR_BIT(FLASH->CR2, FLASH_CR2_PER);
 256:Drivers/STM32F1xx_HAL_Driver/Src/stm32f1xx_hal_flash_ex.c ****           
 257:Drivers/STM32F1xx_HAL_Driver/Src/stm32f1xx_hal_flash_ex.c ****           if (status != HAL_OK)
 258:Drivers/STM32F1xx_HAL_Driver/Src/stm32f1xx_hal_flash_ex.c ****           {
 259:Drivers/STM32F1xx_HAL_Driver/Src/stm32f1xx_hal_flash_ex.c ****             /* In case of error, stop erase procedure and return the faulty address */
 260:Drivers/STM32F1xx_HAL_Driver/Src/stm32f1xx_hal_flash_ex.c ****             *PageError = address;
 261:Drivers/STM32F1xx_HAL_Driver/Src/stm32f1xx_hal_flash_ex.c ****             break;
 262:Drivers/STM32F1xx_HAL_Driver/Src/stm32f1xx_hal_flash_ex.c ****           }
 263:Drivers/STM32F1xx_HAL_Driver/Src/stm32f1xx_hal_flash_ex.c ****         }
 264:Drivers/STM32F1xx_HAL_Driver/Src/stm32f1xx_hal_flash_ex.c ****       }
 265:Drivers/STM32F1xx_HAL_Driver/Src/stm32f1xx_hal_flash_ex.c ****     }
 266:Drivers/STM32F1xx_HAL_Driver/Src/stm32f1xx_hal_flash_ex.c ****     else
 267:Drivers/STM32F1xx_HAL_Driver/Src/stm32f1xx_hal_flash_ex.c **** #endif /* FLASH_BANK2_END */
 268:Drivers/STM32F1xx_HAL_Driver/Src/stm32f1xx_hal_flash_ex.c ****    {
 269:Drivers/STM32F1xx_HAL_Driver/Src/stm32f1xx_hal_flash_ex.c ****       /* Page Erase requested on address located on bank1 */
 270:Drivers/STM32F1xx_HAL_Driver/Src/stm32f1xx_hal_flash_ex.c ****       /* Wait for last operation to be completed */
 271:Drivers/STM32F1xx_HAL_Driver/Src/stm32f1xx_hal_flash_ex.c ****       if (FLASH_WaitForLastOperation((uint32_t)FLASH_TIMEOUT_VALUE) == HAL_OK)
  92              		.loc 1 271 11
  93 005a 4CF25030 		movw	r0, #50000
  94 005e FFF7FEFF 		bl	FLASH_WaitForLastOperation
  95 0062 0346     		mov	r3, r0
  96              		.loc 1 271 10
  97 0064 002B     		cmp	r3, #0
  98 0066 2AD1     		bne	.L5
 272:Drivers/STM32F1xx_HAL_Driver/Src/stm32f1xx_hal_flash_ex.c ****       {
 273:Drivers/STM32F1xx_HAL_Driver/Src/stm32f1xx_hal_flash_ex.c ****         /*Initialization of PageError variable*/
 274:Drivers/STM32F1xx_HAL_Driver/Src/stm32f1xx_hal_flash_ex.c ****         *PageError = 0xFFFFFFFFU;
  99              		.loc 1 274 20
 100 0068 3B68     		ldr	r3, [r7]
 101 006a 4FF0FF32 		mov	r2, #-1
 102 006e 1A60     		str	r2, [r3]
 275:Drivers/STM32F1xx_HAL_Driver/Src/stm32f1xx_hal_flash_ex.c ****         
 276:Drivers/STM32F1xx_HAL_Driver/Src/stm32f1xx_hal_flash_ex.c ****         /* Erase page by page to be done*/
 277:Drivers/STM32F1xx_HAL_Driver/Src/stm32f1xx_hal_flash_ex.c ****         for(address = pEraseInit->PageAddress;
 103              		.loc 1 277 21
 104 0070 7B68     		ldr	r3, [r7, #4]
 105 0072 9B68     		ldr	r3, [r3, #8]
 106 0074 BB60     		str	r3, [r7, #8]
 107              		.loc 1 277 9
 108 0076 19E0     		b	.L6
 109              	.L8:
 278:Drivers/STM32F1xx_HAL_Driver/Src/stm32f1xx_hal_flash_ex.c ****             address < ((pEraseInit->NbPages * FLASH_PAGE_SIZE) + pEraseInit->PageAddress);
 279:Drivers/STM32F1xx_HAL_Driver/Src/stm32f1xx_hal_flash_ex.c ****             address += FLASH_PAGE_SIZE)
 280:Drivers/STM32F1xx_HAL_Driver/Src/stm32f1xx_hal_flash_ex.c ****         {
 281:Drivers/STM32F1xx_HAL_Driver/Src/stm32f1xx_hal_flash_ex.c ****           FLASH_PageErase(address);
 110              		.loc 1 281 11
 111 0078 B868     		ldr	r0, [r7, #8]
 112 007a FFF7FEFF 		bl	FLASH_PageErase
 282:Drivers/STM32F1xx_HAL_Driver/Src/stm32f1xx_hal_flash_ex.c ****           
 283:Drivers/STM32F1xx_HAL_Driver/Src/stm32f1xx_hal_flash_ex.c ****           /* Wait for last operation to be completed */
 284:Drivers/STM32F1xx_HAL_Driver/Src/stm32f1xx_hal_flash_ex.c ****           status = FLASH_WaitForLastOperation((uint32_t)FLASH_TIMEOUT_VALUE);
 113              		.loc 1 284 20
 114 007e 4CF25030 		movw	r0, #50000
 115 0082 FFF7FEFF 		bl	FLASH_WaitForLastOperation
 116 0086 0346     		mov	r3, r0
ARM GAS  C:\Users\Matvey\AppData\Local\Temp\cctkve6j.s 			page 8


 117 0088 FB73     		strb	r3, [r7, #15]
 285:Drivers/STM32F1xx_HAL_Driver/Src/stm32f1xx_hal_flash_ex.c ****           
 286:Drivers/STM32F1xx_HAL_Driver/Src/stm32f1xx_hal_flash_ex.c ****           /* If the erase operation is completed, disable the PER Bit */
 287:Drivers/STM32F1xx_HAL_Driver/Src/stm32f1xx_hal_flash_ex.c ****           CLEAR_BIT(FLASH->CR, FLASH_CR_PER);
 118              		.loc 1 287 11
 119 008a 124B     		ldr	r3, .L9+4
 120 008c 1B69     		ldr	r3, [r3, #16]
 121 008e 114A     		ldr	r2, .L9+4
 122 0090 23F00203 		bic	r3, r3, #2
 123 0094 1361     		str	r3, [r2, #16]
 288:Drivers/STM32F1xx_HAL_Driver/Src/stm32f1xx_hal_flash_ex.c ****           
 289:Drivers/STM32F1xx_HAL_Driver/Src/stm32f1xx_hal_flash_ex.c ****           if (status != HAL_OK)
 124              		.loc 1 289 14
 125 0096 FB7B     		ldrb	r3, [r7, #15]	@ zero_extendqisi2
 126 0098 002B     		cmp	r3, #0
 127 009a 03D0     		beq	.L7
 290:Drivers/STM32F1xx_HAL_Driver/Src/stm32f1xx_hal_flash_ex.c ****           {
 291:Drivers/STM32F1xx_HAL_Driver/Src/stm32f1xx_hal_flash_ex.c ****             /* In case of error, stop erase procedure and return the faulty address */
 292:Drivers/STM32F1xx_HAL_Driver/Src/stm32f1xx_hal_flash_ex.c ****             *PageError = address;
 128              		.loc 1 292 24
 129 009c 3B68     		ldr	r3, [r7]
 130 009e BA68     		ldr	r2, [r7, #8]
 131 00a0 1A60     		str	r2, [r3]
 293:Drivers/STM32F1xx_HAL_Driver/Src/stm32f1xx_hal_flash_ex.c ****             break;
 132              		.loc 1 293 13
 133 00a2 0CE0     		b	.L5
 134              	.L7:
 279:Drivers/STM32F1xx_HAL_Driver/Src/stm32f1xx_hal_flash_ex.c ****         {
 135              		.loc 1 279 21
 136 00a4 BB68     		ldr	r3, [r7, #8]
 137 00a6 03F58063 		add	r3, r3, #1024
 138 00aa BB60     		str	r3, [r7, #8]
 139              	.L6:
 278:Drivers/STM32F1xx_HAL_Driver/Src/stm32f1xx_hal_flash_ex.c ****             address += FLASH_PAGE_SIZE)
 140              		.loc 1 278 35 discriminator 1
 141 00ac 7B68     		ldr	r3, [r7, #4]
 142 00ae DB68     		ldr	r3, [r3, #12]
 278:Drivers/STM32F1xx_HAL_Driver/Src/stm32f1xx_hal_flash_ex.c ****             address += FLASH_PAGE_SIZE)
 143              		.loc 1 278 45 discriminator 1
 144 00b0 9A02     		lsls	r2, r3, #10
 278:Drivers/STM32F1xx_HAL_Driver/Src/stm32f1xx_hal_flash_ex.c ****             address += FLASH_PAGE_SIZE)
 145              		.loc 1 278 76 discriminator 1
 146 00b2 7B68     		ldr	r3, [r7, #4]
 147 00b4 9B68     		ldr	r3, [r3, #8]
 278:Drivers/STM32F1xx_HAL_Driver/Src/stm32f1xx_hal_flash_ex.c ****             address += FLASH_PAGE_SIZE)
 148              		.loc 1 278 64 discriminator 1
 149 00b6 1344     		add	r3, r3, r2
 277:Drivers/STM32F1xx_HAL_Driver/Src/stm32f1xx_hal_flash_ex.c ****             address < ((pEraseInit->NbPages * FLASH_PAGE_SIZE) + pEraseInit->PageAddress);
 150              		.loc 1 277 9 discriminator 1
 151 00b8 BA68     		ldr	r2, [r7, #8]
 152 00ba 9A42     		cmp	r2, r3
 153 00bc DCD3     		bcc	.L8
 154              	.L5:
 294:Drivers/STM32F1xx_HAL_Driver/Src/stm32f1xx_hal_flash_ex.c ****           }
 295:Drivers/STM32F1xx_HAL_Driver/Src/stm32f1xx_hal_flash_ex.c ****         }
 296:Drivers/STM32F1xx_HAL_Driver/Src/stm32f1xx_hal_flash_ex.c ****       }
 297:Drivers/STM32F1xx_HAL_Driver/Src/stm32f1xx_hal_flash_ex.c ****     }
ARM GAS  C:\Users\Matvey\AppData\Local\Temp\cctkve6j.s 			page 9


 298:Drivers/STM32F1xx_HAL_Driver/Src/stm32f1xx_hal_flash_ex.c ****   }
 299:Drivers/STM32F1xx_HAL_Driver/Src/stm32f1xx_hal_flash_ex.c **** 
 300:Drivers/STM32F1xx_HAL_Driver/Src/stm32f1xx_hal_flash_ex.c ****   /* Process Unlocked */
 301:Drivers/STM32F1xx_HAL_Driver/Src/stm32f1xx_hal_flash_ex.c ****   __HAL_UNLOCK(&pFlash);
 155              		.loc 1 301 3
 156 00be 044B     		ldr	r3, .L9
 157 00c0 0022     		movs	r2, #0
 158 00c2 1A76     		strb	r2, [r3, #24]
 302:Drivers/STM32F1xx_HAL_Driver/Src/stm32f1xx_hal_flash_ex.c **** 
 303:Drivers/STM32F1xx_HAL_Driver/Src/stm32f1xx_hal_flash_ex.c ****   return status;
 159              		.loc 1 303 10
 160 00c4 FB7B     		ldrb	r3, [r7, #15]	@ zero_extendqisi2
 161              	.L3:
 304:Drivers/STM32F1xx_HAL_Driver/Src/stm32f1xx_hal_flash_ex.c **** }
 162              		.loc 1 304 1
 163 00c6 1846     		mov	r0, r3
 164 00c8 1037     		adds	r7, r7, #16
 165              	.LCFI3:
 166              		.cfi_def_cfa_offset 8
 167 00ca BD46     		mov	sp, r7
 168              	.LCFI4:
 169              		.cfi_def_cfa_register 13
 170              		@ sp needed
 171 00cc 80BD     		pop	{r7, pc}
 172              	.L10:
 173 00ce 00BF     		.align	2
 174              	.L9:
 175 00d0 00000000 		.word	pFlash
 176 00d4 00200240 		.word	1073881088
 177              		.cfi_endproc
 178              	.LFE65:
 180              		.section	.text.HAL_FLASHEx_Erase_IT,"ax",%progbits
 181              		.align	1
 182              		.global	HAL_FLASHEx_Erase_IT
 183              		.syntax unified
 184              		.thumb
 185              		.thumb_func
 187              	HAL_FLASHEx_Erase_IT:
 188              	.LFB66:
 305:Drivers/STM32F1xx_HAL_Driver/Src/stm32f1xx_hal_flash_ex.c **** 
 306:Drivers/STM32F1xx_HAL_Driver/Src/stm32f1xx_hal_flash_ex.c **** /**
 307:Drivers/STM32F1xx_HAL_Driver/Src/stm32f1xx_hal_flash_ex.c ****   * @brief  Perform a mass erase or erase the specified FLASH memory pages with interrupt enabled
 308:Drivers/STM32F1xx_HAL_Driver/Src/stm32f1xx_hal_flash_ex.c ****   * @note   To correctly run this function, the @ref HAL_FLASH_Unlock() function
 309:Drivers/STM32F1xx_HAL_Driver/Src/stm32f1xx_hal_flash_ex.c ****   *         must be called before.
 310:Drivers/STM32F1xx_HAL_Driver/Src/stm32f1xx_hal_flash_ex.c ****   *         Call the @ref HAL_FLASH_Lock() to disable the flash memory access 
 311:Drivers/STM32F1xx_HAL_Driver/Src/stm32f1xx_hal_flash_ex.c ****   *         (recommended to protect the FLASH memory against possible unwanted operation)
 312:Drivers/STM32F1xx_HAL_Driver/Src/stm32f1xx_hal_flash_ex.c ****   * @param  pEraseInit pointer to an FLASH_EraseInitTypeDef structure that
 313:Drivers/STM32F1xx_HAL_Driver/Src/stm32f1xx_hal_flash_ex.c ****   *         contains the configuration information for the erasing.
 314:Drivers/STM32F1xx_HAL_Driver/Src/stm32f1xx_hal_flash_ex.c ****   *
 315:Drivers/STM32F1xx_HAL_Driver/Src/stm32f1xx_hal_flash_ex.c ****   * @retval HAL_StatusTypeDef HAL Status
 316:Drivers/STM32F1xx_HAL_Driver/Src/stm32f1xx_hal_flash_ex.c ****   */
 317:Drivers/STM32F1xx_HAL_Driver/Src/stm32f1xx_hal_flash_ex.c **** HAL_StatusTypeDef HAL_FLASHEx_Erase_IT(FLASH_EraseInitTypeDef *pEraseInit)
 318:Drivers/STM32F1xx_HAL_Driver/Src/stm32f1xx_hal_flash_ex.c **** {
 189              		.loc 1 318 1
 190              		.cfi_startproc
 191              		@ args = 0, pretend = 0, frame = 16
 192              		@ frame_needed = 1, uses_anonymous_args = 0
ARM GAS  C:\Users\Matvey\AppData\Local\Temp\cctkve6j.s 			page 10


 193 0000 80B5     		push	{r7, lr}
 194              	.LCFI5:
 195              		.cfi_def_cfa_offset 8
 196              		.cfi_offset 7, -8
 197              		.cfi_offset 14, -4
 198 0002 84B0     		sub	sp, sp, #16
 199              	.LCFI6:
 200              		.cfi_def_cfa_offset 24
 201 0004 00AF     		add	r7, sp, #0
 202              	.LCFI7:
 203              		.cfi_def_cfa_register 7
 204 0006 7860     		str	r0, [r7, #4]
 319:Drivers/STM32F1xx_HAL_Driver/Src/stm32f1xx_hal_flash_ex.c ****   HAL_StatusTypeDef status = HAL_OK;
 205              		.loc 1 319 21
 206 0008 0023     		movs	r3, #0
 207 000a FB73     		strb	r3, [r7, #15]
 320:Drivers/STM32F1xx_HAL_Driver/Src/stm32f1xx_hal_flash_ex.c **** 
 321:Drivers/STM32F1xx_HAL_Driver/Src/stm32f1xx_hal_flash_ex.c ****   /* Process Locked */
 322:Drivers/STM32F1xx_HAL_Driver/Src/stm32f1xx_hal_flash_ex.c ****   __HAL_LOCK(&pFlash);
 208              		.loc 1 322 3
 209 000c 1B4B     		ldr	r3, .L17
 210 000e 1B7E     		ldrb	r3, [r3, #24]	@ zero_extendqisi2
 211 0010 012B     		cmp	r3, #1
 212 0012 01D1     		bne	.L12
 213              		.loc 1 322 3 is_stmt 0 discriminator 1
 214 0014 0223     		movs	r3, #2
 215 0016 2DE0     		b	.L13
 216              	.L12:
 217              		.loc 1 322 3 discriminator 2
 218 0018 184B     		ldr	r3, .L17
 219 001a 0122     		movs	r2, #1
 220 001c 1A76     		strb	r2, [r3, #24]
 323:Drivers/STM32F1xx_HAL_Driver/Src/stm32f1xx_hal_flash_ex.c **** 
 324:Drivers/STM32F1xx_HAL_Driver/Src/stm32f1xx_hal_flash_ex.c ****   /* If procedure already ongoing, reject the next one */
 325:Drivers/STM32F1xx_HAL_Driver/Src/stm32f1xx_hal_flash_ex.c ****   if (pFlash.ProcedureOnGoing != FLASH_PROC_NONE)
 221              		.loc 1 325 13 is_stmt 1 discriminator 2
 222 001e 174B     		ldr	r3, .L17
 223 0020 1B78     		ldrb	r3, [r3]
 224 0022 DBB2     		uxtb	r3, r3
 225              		.loc 1 325 6 discriminator 2
 226 0024 002B     		cmp	r3, #0
 227 0026 01D0     		beq	.L14
 326:Drivers/STM32F1xx_HAL_Driver/Src/stm32f1xx_hal_flash_ex.c ****   {
 327:Drivers/STM32F1xx_HAL_Driver/Src/stm32f1xx_hal_flash_ex.c ****     return HAL_ERROR;
 228              		.loc 1 327 12
 229 0028 0123     		movs	r3, #1
 230 002a 23E0     		b	.L13
 231              	.L14:
 328:Drivers/STM32F1xx_HAL_Driver/Src/stm32f1xx_hal_flash_ex.c ****   }
 329:Drivers/STM32F1xx_HAL_Driver/Src/stm32f1xx_hal_flash_ex.c ****   
 330:Drivers/STM32F1xx_HAL_Driver/Src/stm32f1xx_hal_flash_ex.c ****   /* Check the parameters */
 331:Drivers/STM32F1xx_HAL_Driver/Src/stm32f1xx_hal_flash_ex.c ****   assert_param(IS_FLASH_TYPEERASE(pEraseInit->TypeErase));
 332:Drivers/STM32F1xx_HAL_Driver/Src/stm32f1xx_hal_flash_ex.c **** 
 333:Drivers/STM32F1xx_HAL_Driver/Src/stm32f1xx_hal_flash_ex.c ****   /* Enable End of FLASH Operation and Error source interrupts */
 334:Drivers/STM32F1xx_HAL_Driver/Src/stm32f1xx_hal_flash_ex.c ****   __HAL_FLASH_ENABLE_IT(FLASH_IT_EOP | FLASH_IT_ERR);
 232              		.loc 1 334 3
 233 002c 144B     		ldr	r3, .L17+4
ARM GAS  C:\Users\Matvey\AppData\Local\Temp\cctkve6j.s 			page 11


 234 002e 1B69     		ldr	r3, [r3, #16]
 235 0030 134A     		ldr	r2, .L17+4
 236 0032 43F4A053 		orr	r3, r3, #5120
 237 0036 1361     		str	r3, [r2, #16]
 335:Drivers/STM32F1xx_HAL_Driver/Src/stm32f1xx_hal_flash_ex.c **** 
 336:Drivers/STM32F1xx_HAL_Driver/Src/stm32f1xx_hal_flash_ex.c **** #if defined(FLASH_BANK2_END)
 337:Drivers/STM32F1xx_HAL_Driver/Src/stm32f1xx_hal_flash_ex.c ****   /* Enable End of FLASH Operation and Error source interrupts */
 338:Drivers/STM32F1xx_HAL_Driver/Src/stm32f1xx_hal_flash_ex.c ****   __HAL_FLASH_ENABLE_IT(FLASH_IT_EOP_BANK2 | FLASH_IT_ERR_BANK2);
 339:Drivers/STM32F1xx_HAL_Driver/Src/stm32f1xx_hal_flash_ex.c ****   
 340:Drivers/STM32F1xx_HAL_Driver/Src/stm32f1xx_hal_flash_ex.c **** #endif
 341:Drivers/STM32F1xx_HAL_Driver/Src/stm32f1xx_hal_flash_ex.c ****   if (pEraseInit->TypeErase == FLASH_TYPEERASE_MASSERASE)
 238              		.loc 1 341 17
 239 0038 7B68     		ldr	r3, [r7, #4]
 240 003a 1B68     		ldr	r3, [r3]
 241              		.loc 1 341 6
 242 003c 022B     		cmp	r3, #2
 243 003e 08D1     		bne	.L15
 342:Drivers/STM32F1xx_HAL_Driver/Src/stm32f1xx_hal_flash_ex.c ****   {
 343:Drivers/STM32F1xx_HAL_Driver/Src/stm32f1xx_hal_flash_ex.c ****     /*Mass erase to be done*/
 344:Drivers/STM32F1xx_HAL_Driver/Src/stm32f1xx_hal_flash_ex.c ****     pFlash.ProcedureOnGoing = FLASH_PROC_MASSERASE;
 244              		.loc 1 344 29
 245 0040 0E4B     		ldr	r3, .L17
 246 0042 0222     		movs	r2, #2
 247 0044 1A70     		strb	r2, [r3]
 345:Drivers/STM32F1xx_HAL_Driver/Src/stm32f1xx_hal_flash_ex.c ****         FLASH_MassErase(pEraseInit->Banks);
 248              		.loc 1 345 9
 249 0046 7B68     		ldr	r3, [r7, #4]
 250 0048 5B68     		ldr	r3, [r3, #4]
 251 004a 1846     		mov	r0, r3
 252 004c FFF7FEFF 		bl	FLASH_MassErase
 253 0050 0FE0     		b	.L16
 254              	.L15:
 346:Drivers/STM32F1xx_HAL_Driver/Src/stm32f1xx_hal_flash_ex.c ****   }
 347:Drivers/STM32F1xx_HAL_Driver/Src/stm32f1xx_hal_flash_ex.c ****   else
 348:Drivers/STM32F1xx_HAL_Driver/Src/stm32f1xx_hal_flash_ex.c ****   {
 349:Drivers/STM32F1xx_HAL_Driver/Src/stm32f1xx_hal_flash_ex.c ****     /* Erase by page to be done*/
 350:Drivers/STM32F1xx_HAL_Driver/Src/stm32f1xx_hal_flash_ex.c **** 
 351:Drivers/STM32F1xx_HAL_Driver/Src/stm32f1xx_hal_flash_ex.c ****     /* Check the parameters */
 352:Drivers/STM32F1xx_HAL_Driver/Src/stm32f1xx_hal_flash_ex.c ****     assert_param(IS_FLASH_PROGRAM_ADDRESS(pEraseInit->PageAddress));
 353:Drivers/STM32F1xx_HAL_Driver/Src/stm32f1xx_hal_flash_ex.c ****     assert_param(IS_FLASH_NB_PAGES(pEraseInit->PageAddress, pEraseInit->NbPages));
 354:Drivers/STM32F1xx_HAL_Driver/Src/stm32f1xx_hal_flash_ex.c **** 
 355:Drivers/STM32F1xx_HAL_Driver/Src/stm32f1xx_hal_flash_ex.c ****     pFlash.ProcedureOnGoing = FLASH_PROC_PAGEERASE;
 255              		.loc 1 355 29
 256 0052 0A4B     		ldr	r3, .L17
 257 0054 0122     		movs	r2, #1
 258 0056 1A70     		strb	r2, [r3]
 356:Drivers/STM32F1xx_HAL_Driver/Src/stm32f1xx_hal_flash_ex.c ****     pFlash.DataRemaining = pEraseInit->NbPages;
 259              		.loc 1 356 38
 260 0058 7B68     		ldr	r3, [r7, #4]
 261 005a DB68     		ldr	r3, [r3, #12]
 262              		.loc 1 356 26
 263 005c 074A     		ldr	r2, .L17
 264 005e 5360     		str	r3, [r2, #4]
 357:Drivers/STM32F1xx_HAL_Driver/Src/stm32f1xx_hal_flash_ex.c ****     pFlash.Address = pEraseInit->PageAddress;
 265              		.loc 1 357 32
 266 0060 7B68     		ldr	r3, [r7, #4]
 267 0062 9B68     		ldr	r3, [r3, #8]
ARM GAS  C:\Users\Matvey\AppData\Local\Temp\cctkve6j.s 			page 12


 268              		.loc 1 357 20
 269 0064 054A     		ldr	r2, .L17
 270 0066 9360     		str	r3, [r2, #8]
 358:Drivers/STM32F1xx_HAL_Driver/Src/stm32f1xx_hal_flash_ex.c **** 
 359:Drivers/STM32F1xx_HAL_Driver/Src/stm32f1xx_hal_flash_ex.c ****     /*Erase 1st page and wait for IT*/
 360:Drivers/STM32F1xx_HAL_Driver/Src/stm32f1xx_hal_flash_ex.c ****     FLASH_PageErase(pEraseInit->PageAddress);
 271              		.loc 1 360 5
 272 0068 7B68     		ldr	r3, [r7, #4]
 273 006a 9B68     		ldr	r3, [r3, #8]
 274 006c 1846     		mov	r0, r3
 275 006e FFF7FEFF 		bl	FLASH_PageErase
 276              	.L16:
 361:Drivers/STM32F1xx_HAL_Driver/Src/stm32f1xx_hal_flash_ex.c ****   }
 362:Drivers/STM32F1xx_HAL_Driver/Src/stm32f1xx_hal_flash_ex.c **** 
 363:Drivers/STM32F1xx_HAL_Driver/Src/stm32f1xx_hal_flash_ex.c ****   return status;
 277              		.loc 1 363 10
 278 0072 FB7B     		ldrb	r3, [r7, #15]	@ zero_extendqisi2
 279              	.L13:
 364:Drivers/STM32F1xx_HAL_Driver/Src/stm32f1xx_hal_flash_ex.c **** }
 280              		.loc 1 364 1
 281 0074 1846     		mov	r0, r3
 282 0076 1037     		adds	r7, r7, #16
 283              	.LCFI8:
 284              		.cfi_def_cfa_offset 8
 285 0078 BD46     		mov	sp, r7
 286              	.LCFI9:
 287              		.cfi_def_cfa_register 13
 288              		@ sp needed
 289 007a 80BD     		pop	{r7, pc}
 290              	.L18:
 291              		.align	2
 292              	.L17:
 293 007c 00000000 		.word	pFlash
 294 0080 00200240 		.word	1073881088
 295              		.cfi_endproc
 296              	.LFE66:
 298              		.section	.text.HAL_FLASHEx_OBErase,"ax",%progbits
 299              		.align	1
 300              		.global	HAL_FLASHEx_OBErase
 301              		.syntax unified
 302              		.thumb
 303              		.thumb_func
 305              	HAL_FLASHEx_OBErase:
 306              	.LFB67:
 365:Drivers/STM32F1xx_HAL_Driver/Src/stm32f1xx_hal_flash_ex.c **** 
 366:Drivers/STM32F1xx_HAL_Driver/Src/stm32f1xx_hal_flash_ex.c **** /**
 367:Drivers/STM32F1xx_HAL_Driver/Src/stm32f1xx_hal_flash_ex.c ****   * @}
 368:Drivers/STM32F1xx_HAL_Driver/Src/stm32f1xx_hal_flash_ex.c ****   */
 369:Drivers/STM32F1xx_HAL_Driver/Src/stm32f1xx_hal_flash_ex.c **** 
 370:Drivers/STM32F1xx_HAL_Driver/Src/stm32f1xx_hal_flash_ex.c **** /** @defgroup FLASHEx_Exported_Functions_Group2 Option Bytes Programming functions
 371:Drivers/STM32F1xx_HAL_Driver/Src/stm32f1xx_hal_flash_ex.c ****  *  @brief   Option Bytes Programming functions
 372:Drivers/STM32F1xx_HAL_Driver/Src/stm32f1xx_hal_flash_ex.c ****   *
 373:Drivers/STM32F1xx_HAL_Driver/Src/stm32f1xx_hal_flash_ex.c **** @verbatim   
 374:Drivers/STM32F1xx_HAL_Driver/Src/stm32f1xx_hal_flash_ex.c ****   ==============================================================================
 375:Drivers/STM32F1xx_HAL_Driver/Src/stm32f1xx_hal_flash_ex.c ****                 ##### Option Bytes Programming functions ##### 
 376:Drivers/STM32F1xx_HAL_Driver/Src/stm32f1xx_hal_flash_ex.c ****   ==============================================================================  
 377:Drivers/STM32F1xx_HAL_Driver/Src/stm32f1xx_hal_flash_ex.c ****     [..]
ARM GAS  C:\Users\Matvey\AppData\Local\Temp\cctkve6j.s 			page 13


 378:Drivers/STM32F1xx_HAL_Driver/Src/stm32f1xx_hal_flash_ex.c ****     This subsection provides a set of functions allowing to control the FLASH 
 379:Drivers/STM32F1xx_HAL_Driver/Src/stm32f1xx_hal_flash_ex.c ****     option bytes operations.
 380:Drivers/STM32F1xx_HAL_Driver/Src/stm32f1xx_hal_flash_ex.c **** 
 381:Drivers/STM32F1xx_HAL_Driver/Src/stm32f1xx_hal_flash_ex.c **** @endverbatim
 382:Drivers/STM32F1xx_HAL_Driver/Src/stm32f1xx_hal_flash_ex.c ****   * @{
 383:Drivers/STM32F1xx_HAL_Driver/Src/stm32f1xx_hal_flash_ex.c ****   */
 384:Drivers/STM32F1xx_HAL_Driver/Src/stm32f1xx_hal_flash_ex.c **** 
 385:Drivers/STM32F1xx_HAL_Driver/Src/stm32f1xx_hal_flash_ex.c **** /**
 386:Drivers/STM32F1xx_HAL_Driver/Src/stm32f1xx_hal_flash_ex.c ****   * @brief  Erases the FLASH option bytes.
 387:Drivers/STM32F1xx_HAL_Driver/Src/stm32f1xx_hal_flash_ex.c ****   * @note   This functions erases all option bytes except the Read protection (RDP).
 388:Drivers/STM32F1xx_HAL_Driver/Src/stm32f1xx_hal_flash_ex.c ****   *         The function @ref HAL_FLASH_Unlock() should be called before to unlock the FLASH interf
 389:Drivers/STM32F1xx_HAL_Driver/Src/stm32f1xx_hal_flash_ex.c ****   *         The function @ref HAL_FLASH_OB_Unlock() should be called before to unlock the options b
 390:Drivers/STM32F1xx_HAL_Driver/Src/stm32f1xx_hal_flash_ex.c ****   *         The function @ref HAL_FLASH_OB_Launch() should be called after to force the reload of t
 391:Drivers/STM32F1xx_HAL_Driver/Src/stm32f1xx_hal_flash_ex.c ****   *         (system reset will occur)
 392:Drivers/STM32F1xx_HAL_Driver/Src/stm32f1xx_hal_flash_ex.c ****   * @retval HAL status
 393:Drivers/STM32F1xx_HAL_Driver/Src/stm32f1xx_hal_flash_ex.c ****   */
 394:Drivers/STM32F1xx_HAL_Driver/Src/stm32f1xx_hal_flash_ex.c **** 
 395:Drivers/STM32F1xx_HAL_Driver/Src/stm32f1xx_hal_flash_ex.c **** HAL_StatusTypeDef HAL_FLASHEx_OBErase(void)
 396:Drivers/STM32F1xx_HAL_Driver/Src/stm32f1xx_hal_flash_ex.c **** {
 307              		.loc 1 396 1
 308              		.cfi_startproc
 309              		@ args = 0, pretend = 0, frame = 8
 310              		@ frame_needed = 1, uses_anonymous_args = 0
 311 0000 80B5     		push	{r7, lr}
 312              	.LCFI10:
 313              		.cfi_def_cfa_offset 8
 314              		.cfi_offset 7, -8
 315              		.cfi_offset 14, -4
 316 0002 82B0     		sub	sp, sp, #8
 317              	.LCFI11:
 318              		.cfi_def_cfa_offset 16
 319 0004 00AF     		add	r7, sp, #0
 320              	.LCFI12:
 321              		.cfi_def_cfa_register 7
 397:Drivers/STM32F1xx_HAL_Driver/Src/stm32f1xx_hal_flash_ex.c ****   uint8_t rdptmp = OB_RDP_LEVEL_0;
 322              		.loc 1 397 11
 323 0006 A523     		movs	r3, #165
 324 0008 BB71     		strb	r3, [r7, #6]
 398:Drivers/STM32F1xx_HAL_Driver/Src/stm32f1xx_hal_flash_ex.c ****   HAL_StatusTypeDef status = HAL_ERROR;
 325              		.loc 1 398 21
 326 000a 0123     		movs	r3, #1
 327 000c FB71     		strb	r3, [r7, #7]
 399:Drivers/STM32F1xx_HAL_Driver/Src/stm32f1xx_hal_flash_ex.c **** 
 400:Drivers/STM32F1xx_HAL_Driver/Src/stm32f1xx_hal_flash_ex.c ****   /* Get the actual read protection Option Byte value */
 401:Drivers/STM32F1xx_HAL_Driver/Src/stm32f1xx_hal_flash_ex.c ****   rdptmp = FLASH_OB_GetRDP();
 328              		.loc 1 401 12
 329 000e FFF7FEFF 		bl	FLASH_OB_GetRDP
 330 0012 0346     		mov	r3, r0
 331              		.loc 1 401 10
 332 0014 BB71     		strb	r3, [r7, #6]
 402:Drivers/STM32F1xx_HAL_Driver/Src/stm32f1xx_hal_flash_ex.c **** 
 403:Drivers/STM32F1xx_HAL_Driver/Src/stm32f1xx_hal_flash_ex.c ****   /* Wait for last operation to be completed */
 404:Drivers/STM32F1xx_HAL_Driver/Src/stm32f1xx_hal_flash_ex.c ****   status = FLASH_WaitForLastOperation((uint32_t)FLASH_TIMEOUT_VALUE);
 333              		.loc 1 404 12
 334 0016 4CF25030 		movw	r0, #50000
 335 001a FFF7FEFF 		bl	FLASH_WaitForLastOperation
 336 001e 0346     		mov	r3, r0
ARM GAS  C:\Users\Matvey\AppData\Local\Temp\cctkve6j.s 			page 14


 337 0020 FB71     		strb	r3, [r7, #7]
 405:Drivers/STM32F1xx_HAL_Driver/Src/stm32f1xx_hal_flash_ex.c **** 
 406:Drivers/STM32F1xx_HAL_Driver/Src/stm32f1xx_hal_flash_ex.c ****   if(status == HAL_OK)
 338              		.loc 1 406 5
 339 0022 FB79     		ldrb	r3, [r7, #7]	@ zero_extendqisi2
 340 0024 002B     		cmp	r3, #0
 341 0026 23D1     		bne	.L20
 407:Drivers/STM32F1xx_HAL_Driver/Src/stm32f1xx_hal_flash_ex.c ****   {
 408:Drivers/STM32F1xx_HAL_Driver/Src/stm32f1xx_hal_flash_ex.c ****     /* Clean the error context */
 409:Drivers/STM32F1xx_HAL_Driver/Src/stm32f1xx_hal_flash_ex.c ****     pFlash.ErrorCode = HAL_FLASH_ERROR_NONE;
 342              		.loc 1 409 22
 343 0028 144B     		ldr	r3, .L22
 344 002a 0022     		movs	r2, #0
 345 002c DA61     		str	r2, [r3, #28]
 410:Drivers/STM32F1xx_HAL_Driver/Src/stm32f1xx_hal_flash_ex.c **** 
 411:Drivers/STM32F1xx_HAL_Driver/Src/stm32f1xx_hal_flash_ex.c ****     /* If the previous operation is completed, proceed to erase the option bytes */
 412:Drivers/STM32F1xx_HAL_Driver/Src/stm32f1xx_hal_flash_ex.c ****     SET_BIT(FLASH->CR, FLASH_CR_OPTER);
 346              		.loc 1 412 5
 347 002e 144B     		ldr	r3, .L22+4
 348 0030 1B69     		ldr	r3, [r3, #16]
 349 0032 134A     		ldr	r2, .L22+4
 350 0034 43F02003 		orr	r3, r3, #32
 351 0038 1361     		str	r3, [r2, #16]
 413:Drivers/STM32F1xx_HAL_Driver/Src/stm32f1xx_hal_flash_ex.c ****     SET_BIT(FLASH->CR, FLASH_CR_STRT);
 352              		.loc 1 413 5
 353 003a 114B     		ldr	r3, .L22+4
 354 003c 1B69     		ldr	r3, [r3, #16]
 355 003e 104A     		ldr	r2, .L22+4
 356 0040 43F04003 		orr	r3, r3, #64
 357 0044 1361     		str	r3, [r2, #16]
 414:Drivers/STM32F1xx_HAL_Driver/Src/stm32f1xx_hal_flash_ex.c **** 
 415:Drivers/STM32F1xx_HAL_Driver/Src/stm32f1xx_hal_flash_ex.c ****     /* Wait for last operation to be completed */
 416:Drivers/STM32F1xx_HAL_Driver/Src/stm32f1xx_hal_flash_ex.c ****     status = FLASH_WaitForLastOperation((uint32_t)FLASH_TIMEOUT_VALUE);
 358              		.loc 1 416 14
 359 0046 4CF25030 		movw	r0, #50000
 360 004a FFF7FEFF 		bl	FLASH_WaitForLastOperation
 361 004e 0346     		mov	r3, r0
 362 0050 FB71     		strb	r3, [r7, #7]
 417:Drivers/STM32F1xx_HAL_Driver/Src/stm32f1xx_hal_flash_ex.c **** 
 418:Drivers/STM32F1xx_HAL_Driver/Src/stm32f1xx_hal_flash_ex.c ****     /* If the erase operation is completed, disable the OPTER Bit */
 419:Drivers/STM32F1xx_HAL_Driver/Src/stm32f1xx_hal_flash_ex.c ****     CLEAR_BIT(FLASH->CR, FLASH_CR_OPTER);
 363              		.loc 1 419 5
 364 0052 0B4B     		ldr	r3, .L22+4
 365 0054 1B69     		ldr	r3, [r3, #16]
 366 0056 0A4A     		ldr	r2, .L22+4
 367 0058 23F02003 		bic	r3, r3, #32
 368 005c 1361     		str	r3, [r2, #16]
 420:Drivers/STM32F1xx_HAL_Driver/Src/stm32f1xx_hal_flash_ex.c **** 
 421:Drivers/STM32F1xx_HAL_Driver/Src/stm32f1xx_hal_flash_ex.c ****     if(status == HAL_OK)
 369              		.loc 1 421 7
 370 005e FB79     		ldrb	r3, [r7, #7]	@ zero_extendqisi2
 371 0060 002B     		cmp	r3, #0
 372 0062 05D1     		bne	.L20
 422:Drivers/STM32F1xx_HAL_Driver/Src/stm32f1xx_hal_flash_ex.c ****     {
 423:Drivers/STM32F1xx_HAL_Driver/Src/stm32f1xx_hal_flash_ex.c ****       /* Restore the last read protection Option Byte value */
 424:Drivers/STM32F1xx_HAL_Driver/Src/stm32f1xx_hal_flash_ex.c ****       status = FLASH_OB_RDP_LevelConfig(rdptmp);
 373              		.loc 1 424 16
ARM GAS  C:\Users\Matvey\AppData\Local\Temp\cctkve6j.s 			page 15


 374 0064 BB79     		ldrb	r3, [r7, #6]	@ zero_extendqisi2
 375 0066 1846     		mov	r0, r3
 376 0068 FFF7FEFF 		bl	FLASH_OB_RDP_LevelConfig
 377 006c 0346     		mov	r3, r0
 378 006e FB71     		strb	r3, [r7, #7]
 379              	.L20:
 425:Drivers/STM32F1xx_HAL_Driver/Src/stm32f1xx_hal_flash_ex.c ****     }
 426:Drivers/STM32F1xx_HAL_Driver/Src/stm32f1xx_hal_flash_ex.c ****   }
 427:Drivers/STM32F1xx_HAL_Driver/Src/stm32f1xx_hal_flash_ex.c **** 
 428:Drivers/STM32F1xx_HAL_Driver/Src/stm32f1xx_hal_flash_ex.c ****   /* Return the erase status */
 429:Drivers/STM32F1xx_HAL_Driver/Src/stm32f1xx_hal_flash_ex.c ****   return status;
 380              		.loc 1 429 10
 381 0070 FB79     		ldrb	r3, [r7, #7]	@ zero_extendqisi2
 430:Drivers/STM32F1xx_HAL_Driver/Src/stm32f1xx_hal_flash_ex.c **** }
 382              		.loc 1 430 1
 383 0072 1846     		mov	r0, r3
 384 0074 0837     		adds	r7, r7, #8
 385              	.LCFI13:
 386              		.cfi_def_cfa_offset 8
 387 0076 BD46     		mov	sp, r7
 388              	.LCFI14:
 389              		.cfi_def_cfa_register 13
 390              		@ sp needed
 391 0078 80BD     		pop	{r7, pc}
 392              	.L23:
 393 007a 00BF     		.align	2
 394              	.L22:
 395 007c 00000000 		.word	pFlash
 396 0080 00200240 		.word	1073881088
 397              		.cfi_endproc
 398              	.LFE67:
 400              		.section	.text.HAL_FLASHEx_OBProgram,"ax",%progbits
 401              		.align	1
 402              		.global	HAL_FLASHEx_OBProgram
 403              		.syntax unified
 404              		.thumb
 405              		.thumb_func
 407              	HAL_FLASHEx_OBProgram:
 408              	.LFB68:
 431:Drivers/STM32F1xx_HAL_Driver/Src/stm32f1xx_hal_flash_ex.c **** 
 432:Drivers/STM32F1xx_HAL_Driver/Src/stm32f1xx_hal_flash_ex.c **** /**
 433:Drivers/STM32F1xx_HAL_Driver/Src/stm32f1xx_hal_flash_ex.c ****   * @brief  Program option bytes
 434:Drivers/STM32F1xx_HAL_Driver/Src/stm32f1xx_hal_flash_ex.c ****   * @note   The function @ref HAL_FLASH_Unlock() should be called before to unlock the FLASH interf
 435:Drivers/STM32F1xx_HAL_Driver/Src/stm32f1xx_hal_flash_ex.c ****   *         The function @ref HAL_FLASH_OB_Unlock() should be called before to unlock the options b
 436:Drivers/STM32F1xx_HAL_Driver/Src/stm32f1xx_hal_flash_ex.c ****   *         The function @ref HAL_FLASH_OB_Launch() should be called after to force the reload of t
 437:Drivers/STM32F1xx_HAL_Driver/Src/stm32f1xx_hal_flash_ex.c ****   *         (system reset will occur)
 438:Drivers/STM32F1xx_HAL_Driver/Src/stm32f1xx_hal_flash_ex.c ****   *
 439:Drivers/STM32F1xx_HAL_Driver/Src/stm32f1xx_hal_flash_ex.c ****   * @param  pOBInit pointer to an FLASH_OBInitStruct structure that
 440:Drivers/STM32F1xx_HAL_Driver/Src/stm32f1xx_hal_flash_ex.c ****   *         contains the configuration information for the programming.
 441:Drivers/STM32F1xx_HAL_Driver/Src/stm32f1xx_hal_flash_ex.c ****   *
 442:Drivers/STM32F1xx_HAL_Driver/Src/stm32f1xx_hal_flash_ex.c ****   * @retval HAL_StatusTypeDef HAL Status
 443:Drivers/STM32F1xx_HAL_Driver/Src/stm32f1xx_hal_flash_ex.c ****   */
 444:Drivers/STM32F1xx_HAL_Driver/Src/stm32f1xx_hal_flash_ex.c **** HAL_StatusTypeDef HAL_FLASHEx_OBProgram(FLASH_OBProgramInitTypeDef *pOBInit)
 445:Drivers/STM32F1xx_HAL_Driver/Src/stm32f1xx_hal_flash_ex.c **** {
 409              		.loc 1 445 1
 410              		.cfi_startproc
 411              		@ args = 0, pretend = 0, frame = 16
ARM GAS  C:\Users\Matvey\AppData\Local\Temp\cctkve6j.s 			page 16


 412              		@ frame_needed = 1, uses_anonymous_args = 0
 413 0000 80B5     		push	{r7, lr}
 414              	.LCFI15:
 415              		.cfi_def_cfa_offset 8
 416              		.cfi_offset 7, -8
 417              		.cfi_offset 14, -4
 418 0002 84B0     		sub	sp, sp, #16
 419              	.LCFI16:
 420              		.cfi_def_cfa_offset 24
 421 0004 00AF     		add	r7, sp, #0
 422              	.LCFI17:
 423              		.cfi_def_cfa_register 7
 424 0006 7860     		str	r0, [r7, #4]
 446:Drivers/STM32F1xx_HAL_Driver/Src/stm32f1xx_hal_flash_ex.c ****   HAL_StatusTypeDef status = HAL_ERROR;
 425              		.loc 1 446 21
 426 0008 0123     		movs	r3, #1
 427 000a FB73     		strb	r3, [r7, #15]
 447:Drivers/STM32F1xx_HAL_Driver/Src/stm32f1xx_hal_flash_ex.c **** 
 448:Drivers/STM32F1xx_HAL_Driver/Src/stm32f1xx_hal_flash_ex.c ****   /* Process Locked */
 449:Drivers/STM32F1xx_HAL_Driver/Src/stm32f1xx_hal_flash_ex.c ****   __HAL_LOCK(&pFlash);
 428              		.loc 1 449 3
 429 000c 394B     		ldr	r3, .L33
 430 000e 1B7E     		ldrb	r3, [r3, #24]	@ zero_extendqisi2
 431 0010 012B     		cmp	r3, #1
 432 0012 01D1     		bne	.L25
 433              		.loc 1 449 3 is_stmt 0 discriminator 1
 434 0014 0223     		movs	r3, #2
 435 0016 69E0     		b	.L26
 436              	.L25:
 437              		.loc 1 449 3 discriminator 2
 438 0018 364B     		ldr	r3, .L33
 439 001a 0122     		movs	r2, #1
 440 001c 1A76     		strb	r2, [r3, #24]
 450:Drivers/STM32F1xx_HAL_Driver/Src/stm32f1xx_hal_flash_ex.c **** 
 451:Drivers/STM32F1xx_HAL_Driver/Src/stm32f1xx_hal_flash_ex.c ****   /* Check the parameters */
 452:Drivers/STM32F1xx_HAL_Driver/Src/stm32f1xx_hal_flash_ex.c ****   assert_param(IS_OPTIONBYTE(pOBInit->OptionType));
 453:Drivers/STM32F1xx_HAL_Driver/Src/stm32f1xx_hal_flash_ex.c **** 
 454:Drivers/STM32F1xx_HAL_Driver/Src/stm32f1xx_hal_flash_ex.c ****   /* Write protection configuration */
 455:Drivers/STM32F1xx_HAL_Driver/Src/stm32f1xx_hal_flash_ex.c ****   if((pOBInit->OptionType & OPTIONBYTE_WRP) == OPTIONBYTE_WRP)
 441              		.loc 1 455 14 is_stmt 1 discriminator 2
 442 001e 7B68     		ldr	r3, [r7, #4]
 443 0020 1B68     		ldr	r3, [r3]
 444              		.loc 1 455 27 discriminator 2
 445 0022 03F00103 		and	r3, r3, #1
 446              		.loc 1 455 5 discriminator 2
 447 0026 002B     		cmp	r3, #0
 448 0028 1AD0     		beq	.L27
 456:Drivers/STM32F1xx_HAL_Driver/Src/stm32f1xx_hal_flash_ex.c ****   {
 457:Drivers/STM32F1xx_HAL_Driver/Src/stm32f1xx_hal_flash_ex.c ****     assert_param(IS_WRPSTATE(pOBInit->WRPState));
 458:Drivers/STM32F1xx_HAL_Driver/Src/stm32f1xx_hal_flash_ex.c ****     if (pOBInit->WRPState == OB_WRPSTATE_ENABLE)
 449              		.loc 1 458 16
 450 002a 7B68     		ldr	r3, [r7, #4]
 451 002c 5B68     		ldr	r3, [r3, #4]
 452              		.loc 1 458 8
 453 002e 012B     		cmp	r3, #1
 454 0030 07D1     		bne	.L28
 459:Drivers/STM32F1xx_HAL_Driver/Src/stm32f1xx_hal_flash_ex.c ****     {
ARM GAS  C:\Users\Matvey\AppData\Local\Temp\cctkve6j.s 			page 17


 460:Drivers/STM32F1xx_HAL_Driver/Src/stm32f1xx_hal_flash_ex.c ****       /* Enable of Write protection on the selected page */
 461:Drivers/STM32F1xx_HAL_Driver/Src/stm32f1xx_hal_flash_ex.c ****       status = FLASH_OB_EnableWRP(pOBInit->WRPPage);
 455              		.loc 1 461 16
 456 0032 7B68     		ldr	r3, [r7, #4]
 457 0034 9B68     		ldr	r3, [r3, #8]
 458 0036 1846     		mov	r0, r3
 459 0038 FFF7FEFF 		bl	FLASH_OB_EnableWRP
 460 003c 0346     		mov	r3, r0
 461 003e FB73     		strb	r3, [r7, #15]
 462 0040 06E0     		b	.L29
 463              	.L28:
 462:Drivers/STM32F1xx_HAL_Driver/Src/stm32f1xx_hal_flash_ex.c ****     }
 463:Drivers/STM32F1xx_HAL_Driver/Src/stm32f1xx_hal_flash_ex.c ****     else
 464:Drivers/STM32F1xx_HAL_Driver/Src/stm32f1xx_hal_flash_ex.c ****     {
 465:Drivers/STM32F1xx_HAL_Driver/Src/stm32f1xx_hal_flash_ex.c ****       /* Disable of Write protection on the selected page */
 466:Drivers/STM32F1xx_HAL_Driver/Src/stm32f1xx_hal_flash_ex.c ****       status = FLASH_OB_DisableWRP(pOBInit->WRPPage);
 464              		.loc 1 466 16
 465 0042 7B68     		ldr	r3, [r7, #4]
 466 0044 9B68     		ldr	r3, [r3, #8]
 467 0046 1846     		mov	r0, r3
 468 0048 FFF7FEFF 		bl	FLASH_OB_DisableWRP
 469 004c 0346     		mov	r3, r0
 470 004e FB73     		strb	r3, [r7, #15]
 471              	.L29:
 467:Drivers/STM32F1xx_HAL_Driver/Src/stm32f1xx_hal_flash_ex.c ****     }
 468:Drivers/STM32F1xx_HAL_Driver/Src/stm32f1xx_hal_flash_ex.c ****     if (status != HAL_OK)
 472              		.loc 1 468 8
 473 0050 FB7B     		ldrb	r3, [r7, #15]	@ zero_extendqisi2
 474 0052 002B     		cmp	r3, #0
 475 0054 04D0     		beq	.L27
 469:Drivers/STM32F1xx_HAL_Driver/Src/stm32f1xx_hal_flash_ex.c ****     {
 470:Drivers/STM32F1xx_HAL_Driver/Src/stm32f1xx_hal_flash_ex.c ****       /* Process Unlocked */
 471:Drivers/STM32F1xx_HAL_Driver/Src/stm32f1xx_hal_flash_ex.c ****       __HAL_UNLOCK(&pFlash);
 476              		.loc 1 471 7
 477 0056 274B     		ldr	r3, .L33
 478 0058 0022     		movs	r2, #0
 479 005a 1A76     		strb	r2, [r3, #24]
 472:Drivers/STM32F1xx_HAL_Driver/Src/stm32f1xx_hal_flash_ex.c ****       return status;
 480              		.loc 1 472 14
 481 005c FB7B     		ldrb	r3, [r7, #15]	@ zero_extendqisi2
 482 005e 45E0     		b	.L26
 483              	.L27:
 473:Drivers/STM32F1xx_HAL_Driver/Src/stm32f1xx_hal_flash_ex.c ****     }
 474:Drivers/STM32F1xx_HAL_Driver/Src/stm32f1xx_hal_flash_ex.c ****   }
 475:Drivers/STM32F1xx_HAL_Driver/Src/stm32f1xx_hal_flash_ex.c **** 
 476:Drivers/STM32F1xx_HAL_Driver/Src/stm32f1xx_hal_flash_ex.c ****   /* Read protection configuration */
 477:Drivers/STM32F1xx_HAL_Driver/Src/stm32f1xx_hal_flash_ex.c ****   if((pOBInit->OptionType & OPTIONBYTE_RDP) == OPTIONBYTE_RDP)
 484              		.loc 1 477 14
 485 0060 7B68     		ldr	r3, [r7, #4]
 486 0062 1B68     		ldr	r3, [r3]
 487              		.loc 1 477 27
 488 0064 03F00203 		and	r3, r3, #2
 489              		.loc 1 477 5
 490 0068 002B     		cmp	r3, #0
 491 006a 0ED0     		beq	.L30
 478:Drivers/STM32F1xx_HAL_Driver/Src/stm32f1xx_hal_flash_ex.c ****   {
 479:Drivers/STM32F1xx_HAL_Driver/Src/stm32f1xx_hal_flash_ex.c ****     status = FLASH_OB_RDP_LevelConfig(pOBInit->RDPLevel);
ARM GAS  C:\Users\Matvey\AppData\Local\Temp\cctkve6j.s 			page 18


 492              		.loc 1 479 14
 493 006c 7B68     		ldr	r3, [r7, #4]
 494 006e 1B7C     		ldrb	r3, [r3, #16]	@ zero_extendqisi2
 495 0070 1846     		mov	r0, r3
 496 0072 FFF7FEFF 		bl	FLASH_OB_RDP_LevelConfig
 497 0076 0346     		mov	r3, r0
 498 0078 FB73     		strb	r3, [r7, #15]
 480:Drivers/STM32F1xx_HAL_Driver/Src/stm32f1xx_hal_flash_ex.c ****     if (status != HAL_OK)
 499              		.loc 1 480 8
 500 007a FB7B     		ldrb	r3, [r7, #15]	@ zero_extendqisi2
 501 007c 002B     		cmp	r3, #0
 502 007e 04D0     		beq	.L30
 481:Drivers/STM32F1xx_HAL_Driver/Src/stm32f1xx_hal_flash_ex.c ****     {
 482:Drivers/STM32F1xx_HAL_Driver/Src/stm32f1xx_hal_flash_ex.c ****       /* Process Unlocked */
 483:Drivers/STM32F1xx_HAL_Driver/Src/stm32f1xx_hal_flash_ex.c ****       __HAL_UNLOCK(&pFlash);
 503              		.loc 1 483 7
 504 0080 1C4B     		ldr	r3, .L33
 505 0082 0022     		movs	r2, #0
 506 0084 1A76     		strb	r2, [r3, #24]
 484:Drivers/STM32F1xx_HAL_Driver/Src/stm32f1xx_hal_flash_ex.c ****       return status;
 507              		.loc 1 484 14
 508 0086 FB7B     		ldrb	r3, [r7, #15]	@ zero_extendqisi2
 509 0088 30E0     		b	.L26
 510              	.L30:
 485:Drivers/STM32F1xx_HAL_Driver/Src/stm32f1xx_hal_flash_ex.c ****     }
 486:Drivers/STM32F1xx_HAL_Driver/Src/stm32f1xx_hal_flash_ex.c ****   }
 487:Drivers/STM32F1xx_HAL_Driver/Src/stm32f1xx_hal_flash_ex.c **** 
 488:Drivers/STM32F1xx_HAL_Driver/Src/stm32f1xx_hal_flash_ex.c ****   /* USER configuration */
 489:Drivers/STM32F1xx_HAL_Driver/Src/stm32f1xx_hal_flash_ex.c ****   if((pOBInit->OptionType & OPTIONBYTE_USER) == OPTIONBYTE_USER)
 511              		.loc 1 489 14
 512 008a 7B68     		ldr	r3, [r7, #4]
 513 008c 1B68     		ldr	r3, [r3]
 514              		.loc 1 489 27
 515 008e 03F00403 		and	r3, r3, #4
 516              		.loc 1 489 5
 517 0092 002B     		cmp	r3, #0
 518 0094 0ED0     		beq	.L31
 490:Drivers/STM32F1xx_HAL_Driver/Src/stm32f1xx_hal_flash_ex.c ****   {
 491:Drivers/STM32F1xx_HAL_Driver/Src/stm32f1xx_hal_flash_ex.c ****     status = FLASH_OB_UserConfig(pOBInit->USERConfig);
 519              		.loc 1 491 14
 520 0096 7B68     		ldr	r3, [r7, #4]
 521 0098 5B7C     		ldrb	r3, [r3, #17]	@ zero_extendqisi2
 522 009a 1846     		mov	r0, r3
 523 009c FFF7FEFF 		bl	FLASH_OB_UserConfig
 524 00a0 0346     		mov	r3, r0
 525 00a2 FB73     		strb	r3, [r7, #15]
 492:Drivers/STM32F1xx_HAL_Driver/Src/stm32f1xx_hal_flash_ex.c ****     if (status != HAL_OK)
 526              		.loc 1 492 8
 527 00a4 FB7B     		ldrb	r3, [r7, #15]	@ zero_extendqisi2
 528 00a6 002B     		cmp	r3, #0
 529 00a8 04D0     		beq	.L31
 493:Drivers/STM32F1xx_HAL_Driver/Src/stm32f1xx_hal_flash_ex.c ****     {
 494:Drivers/STM32F1xx_HAL_Driver/Src/stm32f1xx_hal_flash_ex.c ****       /* Process Unlocked */
 495:Drivers/STM32F1xx_HAL_Driver/Src/stm32f1xx_hal_flash_ex.c ****       __HAL_UNLOCK(&pFlash);
 530              		.loc 1 495 7
 531 00aa 124B     		ldr	r3, .L33
 532 00ac 0022     		movs	r2, #0
ARM GAS  C:\Users\Matvey\AppData\Local\Temp\cctkve6j.s 			page 19


 533 00ae 1A76     		strb	r2, [r3, #24]
 496:Drivers/STM32F1xx_HAL_Driver/Src/stm32f1xx_hal_flash_ex.c ****       return status;
 534              		.loc 1 496 14
 535 00b0 FB7B     		ldrb	r3, [r7, #15]	@ zero_extendqisi2
 536 00b2 1BE0     		b	.L26
 537              	.L31:
 497:Drivers/STM32F1xx_HAL_Driver/Src/stm32f1xx_hal_flash_ex.c ****     }
 498:Drivers/STM32F1xx_HAL_Driver/Src/stm32f1xx_hal_flash_ex.c ****   }
 499:Drivers/STM32F1xx_HAL_Driver/Src/stm32f1xx_hal_flash_ex.c **** 
 500:Drivers/STM32F1xx_HAL_Driver/Src/stm32f1xx_hal_flash_ex.c ****   /* DATA configuration*/
 501:Drivers/STM32F1xx_HAL_Driver/Src/stm32f1xx_hal_flash_ex.c ****   if((pOBInit->OptionType & OPTIONBYTE_DATA) == OPTIONBYTE_DATA)
 538              		.loc 1 501 14
 539 00b4 7B68     		ldr	r3, [r7, #4]
 540 00b6 1B68     		ldr	r3, [r3]
 541              		.loc 1 501 27
 542 00b8 03F00803 		and	r3, r3, #8
 543              		.loc 1 501 5
 544 00bc 002B     		cmp	r3, #0
 545 00be 11D0     		beq	.L32
 502:Drivers/STM32F1xx_HAL_Driver/Src/stm32f1xx_hal_flash_ex.c ****   {
 503:Drivers/STM32F1xx_HAL_Driver/Src/stm32f1xx_hal_flash_ex.c ****     status = FLASH_OB_ProgramData(pOBInit->DATAAddress, pOBInit->DATAData);
 546              		.loc 1 503 14
 547 00c0 7B68     		ldr	r3, [r7, #4]
 548 00c2 5A69     		ldr	r2, [r3, #20]
 549 00c4 7B68     		ldr	r3, [r7, #4]
 550 00c6 1B7E     		ldrb	r3, [r3, #24]	@ zero_extendqisi2
 551 00c8 1946     		mov	r1, r3
 552 00ca 1046     		mov	r0, r2
 553 00cc FFF7FEFF 		bl	FLASH_OB_ProgramData
 554 00d0 0346     		mov	r3, r0
 555 00d2 FB73     		strb	r3, [r7, #15]
 504:Drivers/STM32F1xx_HAL_Driver/Src/stm32f1xx_hal_flash_ex.c ****     if (status != HAL_OK)
 556              		.loc 1 504 8
 557 00d4 FB7B     		ldrb	r3, [r7, #15]	@ zero_extendqisi2
 558 00d6 002B     		cmp	r3, #0
 559 00d8 04D0     		beq	.L32
 505:Drivers/STM32F1xx_HAL_Driver/Src/stm32f1xx_hal_flash_ex.c ****     {
 506:Drivers/STM32F1xx_HAL_Driver/Src/stm32f1xx_hal_flash_ex.c ****       /* Process Unlocked */
 507:Drivers/STM32F1xx_HAL_Driver/Src/stm32f1xx_hal_flash_ex.c ****       __HAL_UNLOCK(&pFlash);
 560              		.loc 1 507 7
 561 00da 064B     		ldr	r3, .L33
 562 00dc 0022     		movs	r2, #0
 563 00de 1A76     		strb	r2, [r3, #24]
 508:Drivers/STM32F1xx_HAL_Driver/Src/stm32f1xx_hal_flash_ex.c ****       return status;
 564              		.loc 1 508 14
 565 00e0 FB7B     		ldrb	r3, [r7, #15]	@ zero_extendqisi2
 566 00e2 03E0     		b	.L26
 567              	.L32:
 509:Drivers/STM32F1xx_HAL_Driver/Src/stm32f1xx_hal_flash_ex.c ****     }
 510:Drivers/STM32F1xx_HAL_Driver/Src/stm32f1xx_hal_flash_ex.c ****   }
 511:Drivers/STM32F1xx_HAL_Driver/Src/stm32f1xx_hal_flash_ex.c **** 
 512:Drivers/STM32F1xx_HAL_Driver/Src/stm32f1xx_hal_flash_ex.c ****   /* Process Unlocked */
 513:Drivers/STM32F1xx_HAL_Driver/Src/stm32f1xx_hal_flash_ex.c ****   __HAL_UNLOCK(&pFlash);
 568              		.loc 1 513 3
 569 00e4 034B     		ldr	r3, .L33
 570 00e6 0022     		movs	r2, #0
 571 00e8 1A76     		strb	r2, [r3, #24]
ARM GAS  C:\Users\Matvey\AppData\Local\Temp\cctkve6j.s 			page 20


 514:Drivers/STM32F1xx_HAL_Driver/Src/stm32f1xx_hal_flash_ex.c **** 
 515:Drivers/STM32F1xx_HAL_Driver/Src/stm32f1xx_hal_flash_ex.c ****   return status;
 572              		.loc 1 515 10
 573 00ea FB7B     		ldrb	r3, [r7, #15]	@ zero_extendqisi2
 574              	.L26:
 516:Drivers/STM32F1xx_HAL_Driver/Src/stm32f1xx_hal_flash_ex.c **** }
 575              		.loc 1 516 1
 576 00ec 1846     		mov	r0, r3
 577 00ee 1037     		adds	r7, r7, #16
 578              	.LCFI18:
 579              		.cfi_def_cfa_offset 8
 580 00f0 BD46     		mov	sp, r7
 581              	.LCFI19:
 582              		.cfi_def_cfa_register 13
 583              		@ sp needed
 584 00f2 80BD     		pop	{r7, pc}
 585              	.L34:
 586              		.align	2
 587              	.L33:
 588 00f4 00000000 		.word	pFlash
 589              		.cfi_endproc
 590              	.LFE68:
 592              		.section	.text.HAL_FLASHEx_OBGetConfig,"ax",%progbits
 593              		.align	1
 594              		.global	HAL_FLASHEx_OBGetConfig
 595              		.syntax unified
 596              		.thumb
 597              		.thumb_func
 599              	HAL_FLASHEx_OBGetConfig:
 600              	.LFB69:
 517:Drivers/STM32F1xx_HAL_Driver/Src/stm32f1xx_hal_flash_ex.c **** 
 518:Drivers/STM32F1xx_HAL_Driver/Src/stm32f1xx_hal_flash_ex.c **** /**
 519:Drivers/STM32F1xx_HAL_Driver/Src/stm32f1xx_hal_flash_ex.c ****   * @brief  Get the Option byte configuration
 520:Drivers/STM32F1xx_HAL_Driver/Src/stm32f1xx_hal_flash_ex.c ****   * @param  pOBInit pointer to an FLASH_OBInitStruct structure that
 521:Drivers/STM32F1xx_HAL_Driver/Src/stm32f1xx_hal_flash_ex.c ****   *         contains the configuration information for the programming.
 522:Drivers/STM32F1xx_HAL_Driver/Src/stm32f1xx_hal_flash_ex.c ****   *
 523:Drivers/STM32F1xx_HAL_Driver/Src/stm32f1xx_hal_flash_ex.c ****   * @retval None
 524:Drivers/STM32F1xx_HAL_Driver/Src/stm32f1xx_hal_flash_ex.c ****   */
 525:Drivers/STM32F1xx_HAL_Driver/Src/stm32f1xx_hal_flash_ex.c **** void HAL_FLASHEx_OBGetConfig(FLASH_OBProgramInitTypeDef *pOBInit)
 526:Drivers/STM32F1xx_HAL_Driver/Src/stm32f1xx_hal_flash_ex.c **** {
 601              		.loc 1 526 1
 602              		.cfi_startproc
 603              		@ args = 0, pretend = 0, frame = 8
 604              		@ frame_needed = 1, uses_anonymous_args = 0
 605 0000 80B5     		push	{r7, lr}
 606              	.LCFI20:
 607              		.cfi_def_cfa_offset 8
 608              		.cfi_offset 7, -8
 609              		.cfi_offset 14, -4
 610 0002 82B0     		sub	sp, sp, #8
 611              	.LCFI21:
 612              		.cfi_def_cfa_offset 16
 613 0004 00AF     		add	r7, sp, #0
 614              	.LCFI22:
 615              		.cfi_def_cfa_register 7
 616 0006 7860     		str	r0, [r7, #4]
 527:Drivers/STM32F1xx_HAL_Driver/Src/stm32f1xx_hal_flash_ex.c ****   pOBInit->OptionType = OPTIONBYTE_WRP | OPTIONBYTE_RDP | OPTIONBYTE_USER;
ARM GAS  C:\Users\Matvey\AppData\Local\Temp\cctkve6j.s 			page 21


 617              		.loc 1 527 23
 618 0008 7B68     		ldr	r3, [r7, #4]
 619 000a 0722     		movs	r2, #7
 620 000c 1A60     		str	r2, [r3]
 528:Drivers/STM32F1xx_HAL_Driver/Src/stm32f1xx_hal_flash_ex.c **** 
 529:Drivers/STM32F1xx_HAL_Driver/Src/stm32f1xx_hal_flash_ex.c ****   /*Get WRP*/
 530:Drivers/STM32F1xx_HAL_Driver/Src/stm32f1xx_hal_flash_ex.c ****   pOBInit->WRPPage = FLASH_OB_GetWRP();
 621              		.loc 1 530 22
 622 000e FFF7FEFF 		bl	FLASH_OB_GetWRP
 623 0012 0246     		mov	r2, r0
 624              		.loc 1 530 20
 625 0014 7B68     		ldr	r3, [r7, #4]
 626 0016 9A60     		str	r2, [r3, #8]
 531:Drivers/STM32F1xx_HAL_Driver/Src/stm32f1xx_hal_flash_ex.c **** 
 532:Drivers/STM32F1xx_HAL_Driver/Src/stm32f1xx_hal_flash_ex.c ****   /*Get RDP Level*/
 533:Drivers/STM32F1xx_HAL_Driver/Src/stm32f1xx_hal_flash_ex.c ****   pOBInit->RDPLevel = FLASH_OB_GetRDP();
 627              		.loc 1 533 23
 628 0018 FFF7FEFF 		bl	FLASH_OB_GetRDP
 629 001c 0346     		mov	r3, r0
 630              		.loc 1 533 21
 631 001e DAB2     		uxtb	r2, r3
 632 0020 7B68     		ldr	r3, [r7, #4]
 633 0022 1A74     		strb	r2, [r3, #16]
 534:Drivers/STM32F1xx_HAL_Driver/Src/stm32f1xx_hal_flash_ex.c **** 
 535:Drivers/STM32F1xx_HAL_Driver/Src/stm32f1xx_hal_flash_ex.c ****   /*Get USER*/
 536:Drivers/STM32F1xx_HAL_Driver/Src/stm32f1xx_hal_flash_ex.c ****   pOBInit->USERConfig = FLASH_OB_GetUser();
 634              		.loc 1 536 25
 635 0024 FFF7FEFF 		bl	FLASH_OB_GetUser
 636 0028 0346     		mov	r3, r0
 637 002a 1A46     		mov	r2, r3
 638              		.loc 1 536 23
 639 002c 7B68     		ldr	r3, [r7, #4]
 640 002e 5A74     		strb	r2, [r3, #17]
 537:Drivers/STM32F1xx_HAL_Driver/Src/stm32f1xx_hal_flash_ex.c **** }
 641              		.loc 1 537 1
 642 0030 00BF     		nop
 643 0032 0837     		adds	r7, r7, #8
 644              	.LCFI23:
 645              		.cfi_def_cfa_offset 8
 646 0034 BD46     		mov	sp, r7
 647              	.LCFI24:
 648              		.cfi_def_cfa_register 13
 649              		@ sp needed
 650 0036 80BD     		pop	{r7, pc}
 651              		.cfi_endproc
 652              	.LFE69:
 654              		.section	.text.HAL_FLASHEx_OBGetUserData,"ax",%progbits
 655              		.align	1
 656              		.global	HAL_FLASHEx_OBGetUserData
 657              		.syntax unified
 658              		.thumb
 659              		.thumb_func
 661              	HAL_FLASHEx_OBGetUserData:
 662              	.LFB70:
 538:Drivers/STM32F1xx_HAL_Driver/Src/stm32f1xx_hal_flash_ex.c **** 
 539:Drivers/STM32F1xx_HAL_Driver/Src/stm32f1xx_hal_flash_ex.c **** /**
 540:Drivers/STM32F1xx_HAL_Driver/Src/stm32f1xx_hal_flash_ex.c ****   * @brief  Get the Option byte user data
ARM GAS  C:\Users\Matvey\AppData\Local\Temp\cctkve6j.s 			page 22


 541:Drivers/STM32F1xx_HAL_Driver/Src/stm32f1xx_hal_flash_ex.c ****   * @param  DATAAdress Address of the option byte DATA
 542:Drivers/STM32F1xx_HAL_Driver/Src/stm32f1xx_hal_flash_ex.c ****   *          This parameter can be one of the following values:
 543:Drivers/STM32F1xx_HAL_Driver/Src/stm32f1xx_hal_flash_ex.c ****   *            @arg @ref OB_DATA_ADDRESS_DATA0
 544:Drivers/STM32F1xx_HAL_Driver/Src/stm32f1xx_hal_flash_ex.c ****   *            @arg @ref OB_DATA_ADDRESS_DATA1
 545:Drivers/STM32F1xx_HAL_Driver/Src/stm32f1xx_hal_flash_ex.c ****   * @retval Value programmed in USER data
 546:Drivers/STM32F1xx_HAL_Driver/Src/stm32f1xx_hal_flash_ex.c ****   */
 547:Drivers/STM32F1xx_HAL_Driver/Src/stm32f1xx_hal_flash_ex.c **** uint32_t HAL_FLASHEx_OBGetUserData(uint32_t DATAAdress)
 548:Drivers/STM32F1xx_HAL_Driver/Src/stm32f1xx_hal_flash_ex.c **** {
 663              		.loc 1 548 1
 664              		.cfi_startproc
 665              		@ args = 0, pretend = 0, frame = 16
 666              		@ frame_needed = 1, uses_anonymous_args = 0
 667              		@ link register save eliminated.
 668 0000 80B4     		push	{r7}
 669              	.LCFI25:
 670              		.cfi_def_cfa_offset 4
 671              		.cfi_offset 7, -4
 672 0002 85B0     		sub	sp, sp, #20
 673              	.LCFI26:
 674              		.cfi_def_cfa_offset 24
 675 0004 00AF     		add	r7, sp, #0
 676              	.LCFI27:
 677              		.cfi_def_cfa_register 7
 678 0006 7860     		str	r0, [r7, #4]
 549:Drivers/STM32F1xx_HAL_Driver/Src/stm32f1xx_hal_flash_ex.c ****   uint32_t value = 0;
 679              		.loc 1 549 12
 680 0008 0023     		movs	r3, #0
 681 000a FB60     		str	r3, [r7, #12]
 550:Drivers/STM32F1xx_HAL_Driver/Src/stm32f1xx_hal_flash_ex.c ****   
 551:Drivers/STM32F1xx_HAL_Driver/Src/stm32f1xx_hal_flash_ex.c ****   if (DATAAdress == OB_DATA_ADDRESS_DATA0)
 682              		.loc 1 551 6
 683 000c 7B68     		ldr	r3, [r7, #4]
 684 000e 0A4A     		ldr	r2, .L40
 685 0010 9342     		cmp	r3, r2
 686 0012 05D1     		bne	.L37
 552:Drivers/STM32F1xx_HAL_Driver/Src/stm32f1xx_hal_flash_ex.c ****   {
 553:Drivers/STM32F1xx_HAL_Driver/Src/stm32f1xx_hal_flash_ex.c ****     /* Get value programmed in OB USER Data0 */
 554:Drivers/STM32F1xx_HAL_Driver/Src/stm32f1xx_hal_flash_ex.c ****     value = READ_BIT(FLASH->OBR, FLASH_OBR_DATA0) >> FLASH_POSITION_OB_USERDATA0_BIT;
 687              		.loc 1 554 13
 688 0014 094B     		ldr	r3, .L40+4
 689 0016 DB69     		ldr	r3, [r3, #28]
 690              		.loc 1 554 51
 691 0018 9B0A     		lsrs	r3, r3, #10
 692              		.loc 1 554 11
 693 001a DBB2     		uxtb	r3, r3
 694 001c FB60     		str	r3, [r7, #12]
 695 001e 04E0     		b	.L38
 696              	.L37:
 555:Drivers/STM32F1xx_HAL_Driver/Src/stm32f1xx_hal_flash_ex.c ****   }
 556:Drivers/STM32F1xx_HAL_Driver/Src/stm32f1xx_hal_flash_ex.c ****   else
 557:Drivers/STM32F1xx_HAL_Driver/Src/stm32f1xx_hal_flash_ex.c ****   {
 558:Drivers/STM32F1xx_HAL_Driver/Src/stm32f1xx_hal_flash_ex.c ****     /* Get value programmed in OB USER Data1 */
 559:Drivers/STM32F1xx_HAL_Driver/Src/stm32f1xx_hal_flash_ex.c ****     value = READ_BIT(FLASH->OBR, FLASH_OBR_DATA1) >> FLASH_POSITION_OB_USERDATA1_BIT;
 697              		.loc 1 559 13
 698 0020 064B     		ldr	r3, .L40+4
 699 0022 DB69     		ldr	r3, [r3, #28]
 700              		.loc 1 559 51
ARM GAS  C:\Users\Matvey\AppData\Local\Temp\cctkve6j.s 			page 23


 701 0024 9B0C     		lsrs	r3, r3, #18
 702              		.loc 1 559 11
 703 0026 DBB2     		uxtb	r3, r3
 704 0028 FB60     		str	r3, [r7, #12]
 705              	.L38:
 560:Drivers/STM32F1xx_HAL_Driver/Src/stm32f1xx_hal_flash_ex.c ****   }
 561:Drivers/STM32F1xx_HAL_Driver/Src/stm32f1xx_hal_flash_ex.c ****   
 562:Drivers/STM32F1xx_HAL_Driver/Src/stm32f1xx_hal_flash_ex.c ****   return value;
 706              		.loc 1 562 10
 707 002a FB68     		ldr	r3, [r7, #12]
 563:Drivers/STM32F1xx_HAL_Driver/Src/stm32f1xx_hal_flash_ex.c **** }
 708              		.loc 1 563 1
 709 002c 1846     		mov	r0, r3
 710 002e 1437     		adds	r7, r7, #20
 711              	.LCFI28:
 712              		.cfi_def_cfa_offset 4
 713 0030 BD46     		mov	sp, r7
 714              	.LCFI29:
 715              		.cfi_def_cfa_register 13
 716              		@ sp needed
 717 0032 80BC     		pop	{r7}
 718              	.LCFI30:
 719              		.cfi_restore 7
 720              		.cfi_def_cfa_offset 0
 721 0034 7047     		bx	lr
 722              	.L41:
 723 0036 00BF     		.align	2
 724              	.L40:
 725 0038 04F8FF1F 		.word	536868868
 726 003c 00200240 		.word	1073881088
 727              		.cfi_endproc
 728              	.LFE70:
 730              		.section	.text.FLASH_MassErase,"ax",%progbits
 731              		.align	1
 732              		.syntax unified
 733              		.thumb
 734              		.thumb_func
 736              	FLASH_MassErase:
 737              	.LFB71:
 564:Drivers/STM32F1xx_HAL_Driver/Src/stm32f1xx_hal_flash_ex.c **** 
 565:Drivers/STM32F1xx_HAL_Driver/Src/stm32f1xx_hal_flash_ex.c **** /**
 566:Drivers/STM32F1xx_HAL_Driver/Src/stm32f1xx_hal_flash_ex.c ****   * @}
 567:Drivers/STM32F1xx_HAL_Driver/Src/stm32f1xx_hal_flash_ex.c ****   */
 568:Drivers/STM32F1xx_HAL_Driver/Src/stm32f1xx_hal_flash_ex.c **** 
 569:Drivers/STM32F1xx_HAL_Driver/Src/stm32f1xx_hal_flash_ex.c **** /**
 570:Drivers/STM32F1xx_HAL_Driver/Src/stm32f1xx_hal_flash_ex.c ****   * @}
 571:Drivers/STM32F1xx_HAL_Driver/Src/stm32f1xx_hal_flash_ex.c ****   */
 572:Drivers/STM32F1xx_HAL_Driver/Src/stm32f1xx_hal_flash_ex.c **** 
 573:Drivers/STM32F1xx_HAL_Driver/Src/stm32f1xx_hal_flash_ex.c **** /** @addtogroup FLASHEx_Private_Functions
 574:Drivers/STM32F1xx_HAL_Driver/Src/stm32f1xx_hal_flash_ex.c ****  * @{
 575:Drivers/STM32F1xx_HAL_Driver/Src/stm32f1xx_hal_flash_ex.c ****  */
 576:Drivers/STM32F1xx_HAL_Driver/Src/stm32f1xx_hal_flash_ex.c **** 
 577:Drivers/STM32F1xx_HAL_Driver/Src/stm32f1xx_hal_flash_ex.c **** /**
 578:Drivers/STM32F1xx_HAL_Driver/Src/stm32f1xx_hal_flash_ex.c ****   * @brief  Full erase of FLASH memory Bank 
 579:Drivers/STM32F1xx_HAL_Driver/Src/stm32f1xx_hal_flash_ex.c ****   * @param  Banks Banks to be erased
 580:Drivers/STM32F1xx_HAL_Driver/Src/stm32f1xx_hal_flash_ex.c ****   *          This parameter can be one of the following values:
 581:Drivers/STM32F1xx_HAL_Driver/Src/stm32f1xx_hal_flash_ex.c ****   *            @arg @ref FLASH_BANK_1 Bank1 to be erased
ARM GAS  C:\Users\Matvey\AppData\Local\Temp\cctkve6j.s 			page 24


 582:Drivers/STM32F1xx_HAL_Driver/Src/stm32f1xx_hal_flash_ex.c ****   @if STM32F101xG
 583:Drivers/STM32F1xx_HAL_Driver/Src/stm32f1xx_hal_flash_ex.c ****   *            @arg @ref FLASH_BANK_2 Bank2 to be erased
 584:Drivers/STM32F1xx_HAL_Driver/Src/stm32f1xx_hal_flash_ex.c ****   *            @arg @ref FLASH_BANK_BOTH Bank1 and Bank2 to be erased
 585:Drivers/STM32F1xx_HAL_Driver/Src/stm32f1xx_hal_flash_ex.c ****   @endif
 586:Drivers/STM32F1xx_HAL_Driver/Src/stm32f1xx_hal_flash_ex.c ****   @if STM32F103xG
 587:Drivers/STM32F1xx_HAL_Driver/Src/stm32f1xx_hal_flash_ex.c ****   *            @arg @ref FLASH_BANK_2 Bank2 to be erased
 588:Drivers/STM32F1xx_HAL_Driver/Src/stm32f1xx_hal_flash_ex.c ****   *            @arg @ref FLASH_BANK_BOTH Bank1 and Bank2 to be erased
 589:Drivers/STM32F1xx_HAL_Driver/Src/stm32f1xx_hal_flash_ex.c ****   @endif
 590:Drivers/STM32F1xx_HAL_Driver/Src/stm32f1xx_hal_flash_ex.c ****   *
 591:Drivers/STM32F1xx_HAL_Driver/Src/stm32f1xx_hal_flash_ex.c ****   * @retval None
 592:Drivers/STM32F1xx_HAL_Driver/Src/stm32f1xx_hal_flash_ex.c ****   */
 593:Drivers/STM32F1xx_HAL_Driver/Src/stm32f1xx_hal_flash_ex.c **** static void FLASH_MassErase(uint32_t Banks)
 594:Drivers/STM32F1xx_HAL_Driver/Src/stm32f1xx_hal_flash_ex.c **** {
 738              		.loc 1 594 1
 739              		.cfi_startproc
 740              		@ args = 0, pretend = 0, frame = 8
 741              		@ frame_needed = 1, uses_anonymous_args = 0
 742              		@ link register save eliminated.
 743 0000 80B4     		push	{r7}
 744              	.LCFI31:
 745              		.cfi_def_cfa_offset 4
 746              		.cfi_offset 7, -4
 747 0002 83B0     		sub	sp, sp, #12
 748              	.LCFI32:
 749              		.cfi_def_cfa_offset 16
 750 0004 00AF     		add	r7, sp, #0
 751              	.LCFI33:
 752              		.cfi_def_cfa_register 7
 753 0006 7860     		str	r0, [r7, #4]
 595:Drivers/STM32F1xx_HAL_Driver/Src/stm32f1xx_hal_flash_ex.c ****   /* Check the parameters */
 596:Drivers/STM32F1xx_HAL_Driver/Src/stm32f1xx_hal_flash_ex.c ****   assert_param(IS_FLASH_BANK(Banks));
 597:Drivers/STM32F1xx_HAL_Driver/Src/stm32f1xx_hal_flash_ex.c **** 
 598:Drivers/STM32F1xx_HAL_Driver/Src/stm32f1xx_hal_flash_ex.c ****   /* Clean the error context */
 599:Drivers/STM32F1xx_HAL_Driver/Src/stm32f1xx_hal_flash_ex.c ****   pFlash.ErrorCode = HAL_FLASH_ERROR_NONE;
 754              		.loc 1 599 20
 755 0008 094B     		ldr	r3, .L43
 756 000a 0022     		movs	r2, #0
 757 000c DA61     		str	r2, [r3, #28]
 600:Drivers/STM32F1xx_HAL_Driver/Src/stm32f1xx_hal_flash_ex.c **** 
 601:Drivers/STM32F1xx_HAL_Driver/Src/stm32f1xx_hal_flash_ex.c **** #if defined(FLASH_BANK2_END)
 602:Drivers/STM32F1xx_HAL_Driver/Src/stm32f1xx_hal_flash_ex.c ****   if(Banks == FLASH_BANK_BOTH)
 603:Drivers/STM32F1xx_HAL_Driver/Src/stm32f1xx_hal_flash_ex.c ****   {
 604:Drivers/STM32F1xx_HAL_Driver/Src/stm32f1xx_hal_flash_ex.c ****     /* bank1 & bank2 will be erased*/
 605:Drivers/STM32F1xx_HAL_Driver/Src/stm32f1xx_hal_flash_ex.c ****     SET_BIT(FLASH->CR, FLASH_CR_MER);
 606:Drivers/STM32F1xx_HAL_Driver/Src/stm32f1xx_hal_flash_ex.c ****     SET_BIT(FLASH->CR2, FLASH_CR2_MER);
 607:Drivers/STM32F1xx_HAL_Driver/Src/stm32f1xx_hal_flash_ex.c ****     SET_BIT(FLASH->CR, FLASH_CR_STRT);
 608:Drivers/STM32F1xx_HAL_Driver/Src/stm32f1xx_hal_flash_ex.c ****     SET_BIT(FLASH->CR2, FLASH_CR2_STRT);
 609:Drivers/STM32F1xx_HAL_Driver/Src/stm32f1xx_hal_flash_ex.c ****   }
 610:Drivers/STM32F1xx_HAL_Driver/Src/stm32f1xx_hal_flash_ex.c ****   else if(Banks == FLASH_BANK_2)
 611:Drivers/STM32F1xx_HAL_Driver/Src/stm32f1xx_hal_flash_ex.c ****   {
 612:Drivers/STM32F1xx_HAL_Driver/Src/stm32f1xx_hal_flash_ex.c ****     /*Only bank2 will be erased*/
 613:Drivers/STM32F1xx_HAL_Driver/Src/stm32f1xx_hal_flash_ex.c ****     SET_BIT(FLASH->CR2, FLASH_CR2_MER);
 614:Drivers/STM32F1xx_HAL_Driver/Src/stm32f1xx_hal_flash_ex.c ****     SET_BIT(FLASH->CR2, FLASH_CR2_STRT);
 615:Drivers/STM32F1xx_HAL_Driver/Src/stm32f1xx_hal_flash_ex.c ****   }
 616:Drivers/STM32F1xx_HAL_Driver/Src/stm32f1xx_hal_flash_ex.c ****   else
 617:Drivers/STM32F1xx_HAL_Driver/Src/stm32f1xx_hal_flash_ex.c ****   {
 618:Drivers/STM32F1xx_HAL_Driver/Src/stm32f1xx_hal_flash_ex.c **** #endif /* FLASH_BANK2_END */
ARM GAS  C:\Users\Matvey\AppData\Local\Temp\cctkve6j.s 			page 25


 619:Drivers/STM32F1xx_HAL_Driver/Src/stm32f1xx_hal_flash_ex.c **** #if !defined(FLASH_BANK2_END)
 620:Drivers/STM32F1xx_HAL_Driver/Src/stm32f1xx_hal_flash_ex.c ****   /* Prevent unused argument(s) compilation warning */
 621:Drivers/STM32F1xx_HAL_Driver/Src/stm32f1xx_hal_flash_ex.c ****   UNUSED(Banks);
 622:Drivers/STM32F1xx_HAL_Driver/Src/stm32f1xx_hal_flash_ex.c **** #endif /* FLASH_BANK2_END */  
 623:Drivers/STM32F1xx_HAL_Driver/Src/stm32f1xx_hal_flash_ex.c ****     /* Only bank1 will be erased*/
 624:Drivers/STM32F1xx_HAL_Driver/Src/stm32f1xx_hal_flash_ex.c ****     SET_BIT(FLASH->CR, FLASH_CR_MER);
 758              		.loc 1 624 5
 759 000e 094B     		ldr	r3, .L43+4
 760 0010 1B69     		ldr	r3, [r3, #16]
 761 0012 084A     		ldr	r2, .L43+4
 762 0014 43F00403 		orr	r3, r3, #4
 763 0018 1361     		str	r3, [r2, #16]
 625:Drivers/STM32F1xx_HAL_Driver/Src/stm32f1xx_hal_flash_ex.c ****     SET_BIT(FLASH->CR, FLASH_CR_STRT);
 764              		.loc 1 625 5
 765 001a 064B     		ldr	r3, .L43+4
 766 001c 1B69     		ldr	r3, [r3, #16]
 767 001e 054A     		ldr	r2, .L43+4
 768 0020 43F04003 		orr	r3, r3, #64
 769 0024 1361     		str	r3, [r2, #16]
 626:Drivers/STM32F1xx_HAL_Driver/Src/stm32f1xx_hal_flash_ex.c **** #if defined(FLASH_BANK2_END)
 627:Drivers/STM32F1xx_HAL_Driver/Src/stm32f1xx_hal_flash_ex.c ****   }
 628:Drivers/STM32F1xx_HAL_Driver/Src/stm32f1xx_hal_flash_ex.c **** #endif /* FLASH_BANK2_END */
 629:Drivers/STM32F1xx_HAL_Driver/Src/stm32f1xx_hal_flash_ex.c **** }
 770              		.loc 1 629 1
 771 0026 00BF     		nop
 772 0028 0C37     		adds	r7, r7, #12
 773              	.LCFI34:
 774              		.cfi_def_cfa_offset 4
 775 002a BD46     		mov	sp, r7
 776              	.LCFI35:
 777              		.cfi_def_cfa_register 13
 778              		@ sp needed
 779 002c 80BC     		pop	{r7}
 780              	.LCFI36:
 781              		.cfi_restore 7
 782              		.cfi_def_cfa_offset 0
 783 002e 7047     		bx	lr
 784              	.L44:
 785              		.align	2
 786              	.L43:
 787 0030 00000000 		.word	pFlash
 788 0034 00200240 		.word	1073881088
 789              		.cfi_endproc
 790              	.LFE71:
 792              		.section	.text.FLASH_OB_EnableWRP,"ax",%progbits
 793              		.align	1
 794              		.syntax unified
 795              		.thumb
 796              		.thumb_func
 798              	FLASH_OB_EnableWRP:
 799              	.LFB72:
 630:Drivers/STM32F1xx_HAL_Driver/Src/stm32f1xx_hal_flash_ex.c **** 
 631:Drivers/STM32F1xx_HAL_Driver/Src/stm32f1xx_hal_flash_ex.c **** /**
 632:Drivers/STM32F1xx_HAL_Driver/Src/stm32f1xx_hal_flash_ex.c ****   * @brief  Enable the write protection of the desired pages
 633:Drivers/STM32F1xx_HAL_Driver/Src/stm32f1xx_hal_flash_ex.c ****   * @note   An option byte erase is done automatically in this function. 
 634:Drivers/STM32F1xx_HAL_Driver/Src/stm32f1xx_hal_flash_ex.c ****   * @note   When the memory read protection level is selected (RDP level = 1), 
 635:Drivers/STM32F1xx_HAL_Driver/Src/stm32f1xx_hal_flash_ex.c ****   *         it is not possible to program or erase the flash page i if
ARM GAS  C:\Users\Matvey\AppData\Local\Temp\cctkve6j.s 			page 26


 636:Drivers/STM32F1xx_HAL_Driver/Src/stm32f1xx_hal_flash_ex.c ****   *         debug features are connected or boot code is executed in RAM, even if nWRPi = 1 
 637:Drivers/STM32F1xx_HAL_Driver/Src/stm32f1xx_hal_flash_ex.c ****   * 
 638:Drivers/STM32F1xx_HAL_Driver/Src/stm32f1xx_hal_flash_ex.c ****   * @param  WriteProtectPage specifies the page(s) to be write protected.
 639:Drivers/STM32F1xx_HAL_Driver/Src/stm32f1xx_hal_flash_ex.c ****   *         The value of this parameter depend on device used within the same series 
 640:Drivers/STM32F1xx_HAL_Driver/Src/stm32f1xx_hal_flash_ex.c ****   * @retval HAL status 
 641:Drivers/STM32F1xx_HAL_Driver/Src/stm32f1xx_hal_flash_ex.c ****   */
 642:Drivers/STM32F1xx_HAL_Driver/Src/stm32f1xx_hal_flash_ex.c **** static HAL_StatusTypeDef FLASH_OB_EnableWRP(uint32_t WriteProtectPage)
 643:Drivers/STM32F1xx_HAL_Driver/Src/stm32f1xx_hal_flash_ex.c **** {
 800              		.loc 1 643 1
 801              		.cfi_startproc
 802              		@ args = 0, pretend = 0, frame = 24
 803              		@ frame_needed = 1, uses_anonymous_args = 0
 804 0000 80B5     		push	{r7, lr}
 805              	.LCFI37:
 806              		.cfi_def_cfa_offset 8
 807              		.cfi_offset 7, -8
 808              		.cfi_offset 14, -4
 809 0002 86B0     		sub	sp, sp, #24
 810              	.LCFI38:
 811              		.cfi_def_cfa_offset 32
 812 0004 00AF     		add	r7, sp, #0
 813              	.LCFI39:
 814              		.cfi_def_cfa_register 7
 815 0006 7860     		str	r0, [r7, #4]
 644:Drivers/STM32F1xx_HAL_Driver/Src/stm32f1xx_hal_flash_ex.c ****   HAL_StatusTypeDef status = HAL_OK;
 816              		.loc 1 644 21
 817 0008 0023     		movs	r3, #0
 818 000a FB75     		strb	r3, [r7, #23]
 645:Drivers/STM32F1xx_HAL_Driver/Src/stm32f1xx_hal_flash_ex.c ****   uint16_t WRP0_Data = 0xFFFF;
 819              		.loc 1 645 12
 820 000c 4FF6FF73 		movw	r3, #65535
 821 0010 BB82     		strh	r3, [r7, #20]	@ movhi
 646:Drivers/STM32F1xx_HAL_Driver/Src/stm32f1xx_hal_flash_ex.c **** #if defined(FLASH_WRP1_WRP1)
 647:Drivers/STM32F1xx_HAL_Driver/Src/stm32f1xx_hal_flash_ex.c ****   uint16_t WRP1_Data = 0xFFFF;
 822              		.loc 1 647 12
 823 0012 4FF6FF73 		movw	r3, #65535
 824 0016 7B82     		strh	r3, [r7, #18]	@ movhi
 648:Drivers/STM32F1xx_HAL_Driver/Src/stm32f1xx_hal_flash_ex.c **** #endif /* FLASH_WRP1_WRP1 */
 649:Drivers/STM32F1xx_HAL_Driver/Src/stm32f1xx_hal_flash_ex.c **** #if defined(FLASH_WRP2_WRP2)
 650:Drivers/STM32F1xx_HAL_Driver/Src/stm32f1xx_hal_flash_ex.c ****   uint16_t WRP2_Data = 0xFFFF;
 825              		.loc 1 650 12
 826 0018 4FF6FF73 		movw	r3, #65535
 827 001c 3B82     		strh	r3, [r7, #16]	@ movhi
 651:Drivers/STM32F1xx_HAL_Driver/Src/stm32f1xx_hal_flash_ex.c **** #endif /* FLASH_WRP2_WRP2 */
 652:Drivers/STM32F1xx_HAL_Driver/Src/stm32f1xx_hal_flash_ex.c **** #if defined(FLASH_WRP3_WRP3)
 653:Drivers/STM32F1xx_HAL_Driver/Src/stm32f1xx_hal_flash_ex.c ****   uint16_t WRP3_Data = 0xFFFF;
 828              		.loc 1 653 12
 829 001e 4FF6FF73 		movw	r3, #65535
 830 0022 FB81     		strh	r3, [r7, #14]	@ movhi
 654:Drivers/STM32F1xx_HAL_Driver/Src/stm32f1xx_hal_flash_ex.c **** #endif /* FLASH_WRP3_WRP3 */
 655:Drivers/STM32F1xx_HAL_Driver/Src/stm32f1xx_hal_flash_ex.c ****   
 656:Drivers/STM32F1xx_HAL_Driver/Src/stm32f1xx_hal_flash_ex.c ****   /* Check the parameters */
 657:Drivers/STM32F1xx_HAL_Driver/Src/stm32f1xx_hal_flash_ex.c ****   assert_param(IS_OB_WRP(WriteProtectPage));
 658:Drivers/STM32F1xx_HAL_Driver/Src/stm32f1xx_hal_flash_ex.c ****     
 659:Drivers/STM32F1xx_HAL_Driver/Src/stm32f1xx_hal_flash_ex.c ****   /* Get current write protected pages and the new pages to be protected ******/
 660:Drivers/STM32F1xx_HAL_Driver/Src/stm32f1xx_hal_flash_ex.c ****   WriteProtectPage = (uint32_t)(~((~FLASH_OB_GetWRP()) | WriteProtectPage));
 831              		.loc 1 660 37
ARM GAS  C:\Users\Matvey\AppData\Local\Temp\cctkve6j.s 			page 27


 832 0024 FFF7FEFF 		bl	FLASH_OB_GetWRP
 833 0028 0246     		mov	r2, r0
 834              		.loc 1 660 33
 835 002a 7B68     		ldr	r3, [r7, #4]
 836 002c DB43     		mvns	r3, r3
 837              		.loc 1 660 20
 838 002e 1340     		ands	r3, r3, r2
 839 0030 7B60     		str	r3, [r7, #4]
 661:Drivers/STM32F1xx_HAL_Driver/Src/stm32f1xx_hal_flash_ex.c ****   
 662:Drivers/STM32F1xx_HAL_Driver/Src/stm32f1xx_hal_flash_ex.c **** #if defined(OB_WRP_PAGES0TO15MASK)
 663:Drivers/STM32F1xx_HAL_Driver/Src/stm32f1xx_hal_flash_ex.c ****   WRP0_Data = (uint16_t)(WriteProtectPage & OB_WRP_PAGES0TO15MASK);
 664:Drivers/STM32F1xx_HAL_Driver/Src/stm32f1xx_hal_flash_ex.c **** #elif defined(OB_WRP_PAGES0TO31MASK)
 665:Drivers/STM32F1xx_HAL_Driver/Src/stm32f1xx_hal_flash_ex.c ****   WRP0_Data = (uint16_t)(WriteProtectPage & OB_WRP_PAGES0TO31MASK);
 840              		.loc 1 665 15
 841 0032 7B68     		ldr	r3, [r7, #4]
 842 0034 9BB2     		uxth	r3, r3
 843              		.loc 1 665 13
 844 0036 DBB2     		uxtb	r3, r3
 845 0038 BB82     		strh	r3, [r7, #20]	@ movhi
 666:Drivers/STM32F1xx_HAL_Driver/Src/stm32f1xx_hal_flash_ex.c **** #endif /* OB_WRP_PAGES0TO31MASK */
 667:Drivers/STM32F1xx_HAL_Driver/Src/stm32f1xx_hal_flash_ex.c ****   
 668:Drivers/STM32F1xx_HAL_Driver/Src/stm32f1xx_hal_flash_ex.c **** #if defined(OB_WRP_PAGES16TO31MASK)
 669:Drivers/STM32F1xx_HAL_Driver/Src/stm32f1xx_hal_flash_ex.c ****   WRP1_Data = (uint16_t)((WriteProtectPage & OB_WRP_PAGES16TO31MASK) >> 8U);
 670:Drivers/STM32F1xx_HAL_Driver/Src/stm32f1xx_hal_flash_ex.c **** #elif defined(OB_WRP_PAGES32TO63MASK)
 671:Drivers/STM32F1xx_HAL_Driver/Src/stm32f1xx_hal_flash_ex.c ****   WRP1_Data = (uint16_t)((WriteProtectPage & OB_WRP_PAGES32TO63MASK) >> 8U);
 846              		.loc 1 671 70
 847 003a 7B68     		ldr	r3, [r7, #4]
 848 003c 1B0A     		lsrs	r3, r3, #8
 849              		.loc 1 671 15
 850 003e 9BB2     		uxth	r3, r3
 851              		.loc 1 671 13
 852 0040 DBB2     		uxtb	r3, r3
 853 0042 7B82     		strh	r3, [r7, #18]	@ movhi
 672:Drivers/STM32F1xx_HAL_Driver/Src/stm32f1xx_hal_flash_ex.c **** #endif /* OB_WRP_PAGES32TO63MASK */
 673:Drivers/STM32F1xx_HAL_Driver/Src/stm32f1xx_hal_flash_ex.c ****  
 674:Drivers/STM32F1xx_HAL_Driver/Src/stm32f1xx_hal_flash_ex.c **** #if defined(OB_WRP_PAGES64TO95MASK)
 675:Drivers/STM32F1xx_HAL_Driver/Src/stm32f1xx_hal_flash_ex.c ****   WRP2_Data = (uint16_t)((WriteProtectPage & OB_WRP_PAGES64TO95MASK) >> 16U);
 854              		.loc 1 675 70
 855 0044 7B68     		ldr	r3, [r7, #4]
 856 0046 1B0C     		lsrs	r3, r3, #16
 857              		.loc 1 675 15
 858 0048 9BB2     		uxth	r3, r3
 859              		.loc 1 675 13
 860 004a DBB2     		uxtb	r3, r3
 861 004c 3B82     		strh	r3, [r7, #16]	@ movhi
 676:Drivers/STM32F1xx_HAL_Driver/Src/stm32f1xx_hal_flash_ex.c **** #endif /* OB_WRP_PAGES64TO95MASK */
 677:Drivers/STM32F1xx_HAL_Driver/Src/stm32f1xx_hal_flash_ex.c **** #if defined(OB_WRP_PAGES32TO47MASK)
 678:Drivers/STM32F1xx_HAL_Driver/Src/stm32f1xx_hal_flash_ex.c ****   WRP2_Data = (uint16_t)((WriteProtectPage & OB_WRP_PAGES32TO47MASK) >> 16U);
 679:Drivers/STM32F1xx_HAL_Driver/Src/stm32f1xx_hal_flash_ex.c **** #endif /* OB_WRP_PAGES32TO47MASK */
 680:Drivers/STM32F1xx_HAL_Driver/Src/stm32f1xx_hal_flash_ex.c **** 
 681:Drivers/STM32F1xx_HAL_Driver/Src/stm32f1xx_hal_flash_ex.c **** #if defined(OB_WRP_PAGES96TO127MASK)
 682:Drivers/STM32F1xx_HAL_Driver/Src/stm32f1xx_hal_flash_ex.c ****   WRP3_Data = (uint16_t)((WriteProtectPage & OB_WRP_PAGES96TO127MASK) >> 24U); 
 862              		.loc 1 682 71
 863 004e 7B68     		ldr	r3, [r7, #4]
 864 0050 1B0E     		lsrs	r3, r3, #24
 865              		.loc 1 682 13
 866 0052 FB81     		strh	r3, [r7, #14]	@ movhi
ARM GAS  C:\Users\Matvey\AppData\Local\Temp\cctkve6j.s 			page 28


 683:Drivers/STM32F1xx_HAL_Driver/Src/stm32f1xx_hal_flash_ex.c **** #elif defined(OB_WRP_PAGES48TO255MASK)
 684:Drivers/STM32F1xx_HAL_Driver/Src/stm32f1xx_hal_flash_ex.c ****   WRP3_Data = (uint16_t)((WriteProtectPage & OB_WRP_PAGES48TO255MASK) >> 24U); 
 685:Drivers/STM32F1xx_HAL_Driver/Src/stm32f1xx_hal_flash_ex.c **** #elif defined(OB_WRP_PAGES48TO511MASK)
 686:Drivers/STM32F1xx_HAL_Driver/Src/stm32f1xx_hal_flash_ex.c ****   WRP3_Data = (uint16_t)((WriteProtectPage & OB_WRP_PAGES48TO511MASK) >> 24U); 
 687:Drivers/STM32F1xx_HAL_Driver/Src/stm32f1xx_hal_flash_ex.c **** #elif defined(OB_WRP_PAGES48TO127MASK)
 688:Drivers/STM32F1xx_HAL_Driver/Src/stm32f1xx_hal_flash_ex.c ****   WRP3_Data = (uint16_t)((WriteProtectPage & OB_WRP_PAGES48TO127MASK) >> 24U); 
 689:Drivers/STM32F1xx_HAL_Driver/Src/stm32f1xx_hal_flash_ex.c **** #endif /* OB_WRP_PAGES96TO127MASK */
 690:Drivers/STM32F1xx_HAL_Driver/Src/stm32f1xx_hal_flash_ex.c ****   
 691:Drivers/STM32F1xx_HAL_Driver/Src/stm32f1xx_hal_flash_ex.c ****   /* Wait for last operation to be completed */
 692:Drivers/STM32F1xx_HAL_Driver/Src/stm32f1xx_hal_flash_ex.c ****   status = FLASH_WaitForLastOperation((uint32_t)FLASH_TIMEOUT_VALUE);
 867              		.loc 1 692 12
 868 0054 4CF25030 		movw	r0, #50000
 869 0058 FFF7FEFF 		bl	FLASH_WaitForLastOperation
 870 005c 0346     		mov	r3, r0
 871 005e FB75     		strb	r3, [r7, #23]
 693:Drivers/STM32F1xx_HAL_Driver/Src/stm32f1xx_hal_flash_ex.c **** 
 694:Drivers/STM32F1xx_HAL_Driver/Src/stm32f1xx_hal_flash_ex.c ****   if(status == HAL_OK)
 872              		.loc 1 694 5
 873 0060 FB7D     		ldrb	r3, [r7, #23]	@ zero_extendqisi2
 874 0062 002B     		cmp	r3, #0
 875 0064 62D1     		bne	.L46
 695:Drivers/STM32F1xx_HAL_Driver/Src/stm32f1xx_hal_flash_ex.c ****   { 
 696:Drivers/STM32F1xx_HAL_Driver/Src/stm32f1xx_hal_flash_ex.c ****     /* Clean the error context */
 697:Drivers/STM32F1xx_HAL_Driver/Src/stm32f1xx_hal_flash_ex.c ****     pFlash.ErrorCode = HAL_FLASH_ERROR_NONE;
 876              		.loc 1 697 22
 877 0066 344B     		ldr	r3, .L52
 878 0068 0022     		movs	r2, #0
 879 006a DA61     		str	r2, [r3, #28]
 698:Drivers/STM32F1xx_HAL_Driver/Src/stm32f1xx_hal_flash_ex.c **** 
 699:Drivers/STM32F1xx_HAL_Driver/Src/stm32f1xx_hal_flash_ex.c ****     /* To be able to write again option byte, need to perform a option byte erase */
 700:Drivers/STM32F1xx_HAL_Driver/Src/stm32f1xx_hal_flash_ex.c ****     status = HAL_FLASHEx_OBErase();
 880              		.loc 1 700 14
 881 006c FFF7FEFF 		bl	HAL_FLASHEx_OBErase
 882 0070 0346     		mov	r3, r0
 883 0072 FB75     		strb	r3, [r7, #23]
 701:Drivers/STM32F1xx_HAL_Driver/Src/stm32f1xx_hal_flash_ex.c ****     if (status == HAL_OK)  
 884              		.loc 1 701 8
 885 0074 FB7D     		ldrb	r3, [r7, #23]	@ zero_extendqisi2
 886 0076 002B     		cmp	r3, #0
 887 0078 58D1     		bne	.L46
 702:Drivers/STM32F1xx_HAL_Driver/Src/stm32f1xx_hal_flash_ex.c ****     {
 703:Drivers/STM32F1xx_HAL_Driver/Src/stm32f1xx_hal_flash_ex.c ****       /* Enable write protection */
 704:Drivers/STM32F1xx_HAL_Driver/Src/stm32f1xx_hal_flash_ex.c ****       SET_BIT(FLASH->CR, FLASH_CR_OPTPG);
 888              		.loc 1 704 7
 889 007a 304B     		ldr	r3, .L52+4
 890 007c 1B69     		ldr	r3, [r3, #16]
 891 007e 2F4A     		ldr	r2, .L52+4
 892 0080 43F01003 		orr	r3, r3, #16
 893 0084 1361     		str	r3, [r2, #16]
 705:Drivers/STM32F1xx_HAL_Driver/Src/stm32f1xx_hal_flash_ex.c **** 
 706:Drivers/STM32F1xx_HAL_Driver/Src/stm32f1xx_hal_flash_ex.c **** #if defined(FLASH_WRP0_WRP0)
 707:Drivers/STM32F1xx_HAL_Driver/Src/stm32f1xx_hal_flash_ex.c ****       if(WRP0_Data != 0xFFU)
 894              		.loc 1 707 9
 895 0086 BB8A     		ldrh	r3, [r7, #20]
 896 0088 FF2B     		cmp	r3, #255
 897 008a 0DD0     		beq	.L47
 708:Drivers/STM32F1xx_HAL_Driver/Src/stm32f1xx_hal_flash_ex.c ****       {
ARM GAS  C:\Users\Matvey\AppData\Local\Temp\cctkve6j.s 			page 29


 709:Drivers/STM32F1xx_HAL_Driver/Src/stm32f1xx_hal_flash_ex.c ****         OB->WRP0 &= WRP0_Data;
 898              		.loc 1 709 18
 899 008c 2C4B     		ldr	r3, .L52+8
 900 008e 1B89     		ldrh	r3, [r3, #8]	@ movhi
 901 0090 9AB2     		uxth	r2, r3
 902 0092 2B49     		ldr	r1, .L52+8
 903 0094 BB8A     		ldrh	r3, [r7, #20]	@ movhi
 904 0096 1340     		ands	r3, r3, r2
 905 0098 9BB2     		uxth	r3, r3
 906 009a 0B81     		strh	r3, [r1, #8]	@ movhi
 710:Drivers/STM32F1xx_HAL_Driver/Src/stm32f1xx_hal_flash_ex.c ****         
 711:Drivers/STM32F1xx_HAL_Driver/Src/stm32f1xx_hal_flash_ex.c ****         /* Wait for last operation to be completed */
 712:Drivers/STM32F1xx_HAL_Driver/Src/stm32f1xx_hal_flash_ex.c ****         status = FLASH_WaitForLastOperation((uint32_t)FLASH_TIMEOUT_VALUE);
 907              		.loc 1 712 18
 908 009c 4CF25030 		movw	r0, #50000
 909 00a0 FFF7FEFF 		bl	FLASH_WaitForLastOperation
 910 00a4 0346     		mov	r3, r0
 911 00a6 FB75     		strb	r3, [r7, #23]
 912              	.L47:
 713:Drivers/STM32F1xx_HAL_Driver/Src/stm32f1xx_hal_flash_ex.c ****       }
 714:Drivers/STM32F1xx_HAL_Driver/Src/stm32f1xx_hal_flash_ex.c **** #endif /* FLASH_WRP0_WRP0 */
 715:Drivers/STM32F1xx_HAL_Driver/Src/stm32f1xx_hal_flash_ex.c **** 
 716:Drivers/STM32F1xx_HAL_Driver/Src/stm32f1xx_hal_flash_ex.c **** #if defined(FLASH_WRP1_WRP1)
 717:Drivers/STM32F1xx_HAL_Driver/Src/stm32f1xx_hal_flash_ex.c ****       if((status == HAL_OK) && (WRP1_Data != 0xFFU))
 913              		.loc 1 717 9
 914 00a8 FB7D     		ldrb	r3, [r7, #23]	@ zero_extendqisi2
 915 00aa 002B     		cmp	r3, #0
 916 00ac 10D1     		bne	.L48
 917              		.loc 1 717 29 discriminator 1
 918 00ae 7B8A     		ldrh	r3, [r7, #18]
 919 00b0 FF2B     		cmp	r3, #255
 920 00b2 0DD0     		beq	.L48
 718:Drivers/STM32F1xx_HAL_Driver/Src/stm32f1xx_hal_flash_ex.c ****       {
 719:Drivers/STM32F1xx_HAL_Driver/Src/stm32f1xx_hal_flash_ex.c ****         OB->WRP1 &= WRP1_Data;
 921              		.loc 1 719 18
 922 00b4 224B     		ldr	r3, .L52+8
 923 00b6 5B89     		ldrh	r3, [r3, #10]	@ movhi
 924 00b8 9AB2     		uxth	r2, r3
 925 00ba 2149     		ldr	r1, .L52+8
 926 00bc 7B8A     		ldrh	r3, [r7, #18]	@ movhi
 927 00be 1340     		ands	r3, r3, r2
 928 00c0 9BB2     		uxth	r3, r3
 929 00c2 4B81     		strh	r3, [r1, #10]	@ movhi
 720:Drivers/STM32F1xx_HAL_Driver/Src/stm32f1xx_hal_flash_ex.c ****         
 721:Drivers/STM32F1xx_HAL_Driver/Src/stm32f1xx_hal_flash_ex.c ****         /* Wait for last operation to be completed */
 722:Drivers/STM32F1xx_HAL_Driver/Src/stm32f1xx_hal_flash_ex.c ****         status = FLASH_WaitForLastOperation((uint32_t)FLASH_TIMEOUT_VALUE);
 930              		.loc 1 722 18
 931 00c4 4CF25030 		movw	r0, #50000
 932 00c8 FFF7FEFF 		bl	FLASH_WaitForLastOperation
 933 00cc 0346     		mov	r3, r0
 934 00ce FB75     		strb	r3, [r7, #23]
 935              	.L48:
 723:Drivers/STM32F1xx_HAL_Driver/Src/stm32f1xx_hal_flash_ex.c ****       }
 724:Drivers/STM32F1xx_HAL_Driver/Src/stm32f1xx_hal_flash_ex.c **** #endif /* FLASH_WRP1_WRP1 */
 725:Drivers/STM32F1xx_HAL_Driver/Src/stm32f1xx_hal_flash_ex.c **** 
 726:Drivers/STM32F1xx_HAL_Driver/Src/stm32f1xx_hal_flash_ex.c **** #if defined(FLASH_WRP2_WRP2)
 727:Drivers/STM32F1xx_HAL_Driver/Src/stm32f1xx_hal_flash_ex.c ****       if((status == HAL_OK) && (WRP2_Data != 0xFFU))
ARM GAS  C:\Users\Matvey\AppData\Local\Temp\cctkve6j.s 			page 30


 936              		.loc 1 727 9
 937 00d0 FB7D     		ldrb	r3, [r7, #23]	@ zero_extendqisi2
 938 00d2 002B     		cmp	r3, #0
 939 00d4 10D1     		bne	.L49
 940              		.loc 1 727 29 discriminator 1
 941 00d6 3B8A     		ldrh	r3, [r7, #16]
 942 00d8 FF2B     		cmp	r3, #255
 943 00da 0DD0     		beq	.L49
 728:Drivers/STM32F1xx_HAL_Driver/Src/stm32f1xx_hal_flash_ex.c ****       {
 729:Drivers/STM32F1xx_HAL_Driver/Src/stm32f1xx_hal_flash_ex.c ****         OB->WRP2 &= WRP2_Data;
 944              		.loc 1 729 18
 945 00dc 184B     		ldr	r3, .L52+8
 946 00de 9B89     		ldrh	r3, [r3, #12]	@ movhi
 947 00e0 9AB2     		uxth	r2, r3
 948 00e2 1749     		ldr	r1, .L52+8
 949 00e4 3B8A     		ldrh	r3, [r7, #16]	@ movhi
 950 00e6 1340     		ands	r3, r3, r2
 951 00e8 9BB2     		uxth	r3, r3
 952 00ea 8B81     		strh	r3, [r1, #12]	@ movhi
 730:Drivers/STM32F1xx_HAL_Driver/Src/stm32f1xx_hal_flash_ex.c ****         
 731:Drivers/STM32F1xx_HAL_Driver/Src/stm32f1xx_hal_flash_ex.c ****         /* Wait for last operation to be completed */
 732:Drivers/STM32F1xx_HAL_Driver/Src/stm32f1xx_hal_flash_ex.c ****         status = FLASH_WaitForLastOperation((uint32_t)FLASH_TIMEOUT_VALUE);
 953              		.loc 1 732 18
 954 00ec 4CF25030 		movw	r0, #50000
 955 00f0 FFF7FEFF 		bl	FLASH_WaitForLastOperation
 956 00f4 0346     		mov	r3, r0
 957 00f6 FB75     		strb	r3, [r7, #23]
 958              	.L49:
 733:Drivers/STM32F1xx_HAL_Driver/Src/stm32f1xx_hal_flash_ex.c ****       }
 734:Drivers/STM32F1xx_HAL_Driver/Src/stm32f1xx_hal_flash_ex.c **** #endif /* FLASH_WRP2_WRP2 */
 735:Drivers/STM32F1xx_HAL_Driver/Src/stm32f1xx_hal_flash_ex.c **** 
 736:Drivers/STM32F1xx_HAL_Driver/Src/stm32f1xx_hal_flash_ex.c **** #if defined(FLASH_WRP3_WRP3)
 737:Drivers/STM32F1xx_HAL_Driver/Src/stm32f1xx_hal_flash_ex.c ****       if((status == HAL_OK) && (WRP3_Data != 0xFFU))
 959              		.loc 1 737 9
 960 00f8 FB7D     		ldrb	r3, [r7, #23]	@ zero_extendqisi2
 961 00fa 002B     		cmp	r3, #0
 962 00fc 10D1     		bne	.L50
 963              		.loc 1 737 29 discriminator 1
 964 00fe FB89     		ldrh	r3, [r7, #14]
 965 0100 FF2B     		cmp	r3, #255
 966 0102 0DD0     		beq	.L50
 738:Drivers/STM32F1xx_HAL_Driver/Src/stm32f1xx_hal_flash_ex.c ****       {
 739:Drivers/STM32F1xx_HAL_Driver/Src/stm32f1xx_hal_flash_ex.c ****         OB->WRP3 &= WRP3_Data;
 967              		.loc 1 739 18
 968 0104 0E4B     		ldr	r3, .L52+8
 969 0106 DB89     		ldrh	r3, [r3, #14]	@ movhi
 970 0108 9AB2     		uxth	r2, r3
 971 010a 0D49     		ldr	r1, .L52+8
 972 010c FB89     		ldrh	r3, [r7, #14]	@ movhi
 973 010e 1340     		ands	r3, r3, r2
 974 0110 9BB2     		uxth	r3, r3
 975 0112 CB81     		strh	r3, [r1, #14]	@ movhi
 740:Drivers/STM32F1xx_HAL_Driver/Src/stm32f1xx_hal_flash_ex.c ****         
 741:Drivers/STM32F1xx_HAL_Driver/Src/stm32f1xx_hal_flash_ex.c ****         /* Wait for last operation to be completed */
 742:Drivers/STM32F1xx_HAL_Driver/Src/stm32f1xx_hal_flash_ex.c ****         status = FLASH_WaitForLastOperation((uint32_t)FLASH_TIMEOUT_VALUE);
 976              		.loc 1 742 18
 977 0114 4CF25030 		movw	r0, #50000
ARM GAS  C:\Users\Matvey\AppData\Local\Temp\cctkve6j.s 			page 31


 978 0118 FFF7FEFF 		bl	FLASH_WaitForLastOperation
 979 011c 0346     		mov	r3, r0
 980 011e FB75     		strb	r3, [r7, #23]
 981              	.L50:
 743:Drivers/STM32F1xx_HAL_Driver/Src/stm32f1xx_hal_flash_ex.c ****       }
 744:Drivers/STM32F1xx_HAL_Driver/Src/stm32f1xx_hal_flash_ex.c **** #endif /* FLASH_WRP3_WRP3 */
 745:Drivers/STM32F1xx_HAL_Driver/Src/stm32f1xx_hal_flash_ex.c **** 
 746:Drivers/STM32F1xx_HAL_Driver/Src/stm32f1xx_hal_flash_ex.c ****       /* if the program operation is completed, disable the OPTPG Bit */
 747:Drivers/STM32F1xx_HAL_Driver/Src/stm32f1xx_hal_flash_ex.c ****       CLEAR_BIT(FLASH->CR, FLASH_CR_OPTPG);
 982              		.loc 1 747 7
 983 0120 064B     		ldr	r3, .L52+4
 984 0122 1B69     		ldr	r3, [r3, #16]
 985 0124 054A     		ldr	r2, .L52+4
 986 0126 23F01003 		bic	r3, r3, #16
 987 012a 1361     		str	r3, [r2, #16]
 988              	.L46:
 748:Drivers/STM32F1xx_HAL_Driver/Src/stm32f1xx_hal_flash_ex.c ****     }
 749:Drivers/STM32F1xx_HAL_Driver/Src/stm32f1xx_hal_flash_ex.c ****   }
 750:Drivers/STM32F1xx_HAL_Driver/Src/stm32f1xx_hal_flash_ex.c ****   
 751:Drivers/STM32F1xx_HAL_Driver/Src/stm32f1xx_hal_flash_ex.c ****   return status;
 989              		.loc 1 751 10
 990 012c FB7D     		ldrb	r3, [r7, #23]	@ zero_extendqisi2
 752:Drivers/STM32F1xx_HAL_Driver/Src/stm32f1xx_hal_flash_ex.c **** }
 991              		.loc 1 752 1
 992 012e 1846     		mov	r0, r3
 993 0130 1837     		adds	r7, r7, #24
 994              	.LCFI40:
 995              		.cfi_def_cfa_offset 8
 996 0132 BD46     		mov	sp, r7
 997              	.LCFI41:
 998              		.cfi_def_cfa_register 13
 999              		@ sp needed
 1000 0134 80BD     		pop	{r7, pc}
 1001              	.L53:
 1002 0136 00BF     		.align	2
 1003              	.L52:
 1004 0138 00000000 		.word	pFlash
 1005 013c 00200240 		.word	1073881088
 1006 0140 00F8FF1F 		.word	536868864
 1007              		.cfi_endproc
 1008              	.LFE72:
 1010              		.section	.text.FLASH_OB_DisableWRP,"ax",%progbits
 1011              		.align	1
 1012              		.syntax unified
 1013              		.thumb
 1014              		.thumb_func
 1016              	FLASH_OB_DisableWRP:
 1017              	.LFB73:
 753:Drivers/STM32F1xx_HAL_Driver/Src/stm32f1xx_hal_flash_ex.c **** 
 754:Drivers/STM32F1xx_HAL_Driver/Src/stm32f1xx_hal_flash_ex.c **** /**
 755:Drivers/STM32F1xx_HAL_Driver/Src/stm32f1xx_hal_flash_ex.c ****   * @brief  Disable the write protection of the desired pages
 756:Drivers/STM32F1xx_HAL_Driver/Src/stm32f1xx_hal_flash_ex.c ****   * @note   An option byte erase is done automatically in this function. 
 757:Drivers/STM32F1xx_HAL_Driver/Src/stm32f1xx_hal_flash_ex.c ****   * @note   When the memory read protection level is selected (RDP level = 1), 
 758:Drivers/STM32F1xx_HAL_Driver/Src/stm32f1xx_hal_flash_ex.c ****   *         it is not possible to program or erase the flash page i if   
 759:Drivers/STM32F1xx_HAL_Driver/Src/stm32f1xx_hal_flash_ex.c ****   *         debug features are connected or boot code is executed in RAM, even if nWRPi = 1 
 760:Drivers/STM32F1xx_HAL_Driver/Src/stm32f1xx_hal_flash_ex.c ****   * 
 761:Drivers/STM32F1xx_HAL_Driver/Src/stm32f1xx_hal_flash_ex.c ****   * @param  WriteProtectPage specifies the page(s) to be write unprotected.
ARM GAS  C:\Users\Matvey\AppData\Local\Temp\cctkve6j.s 			page 32


 762:Drivers/STM32F1xx_HAL_Driver/Src/stm32f1xx_hal_flash_ex.c ****   *         The value of this parameter depend on device used within the same series 
 763:Drivers/STM32F1xx_HAL_Driver/Src/stm32f1xx_hal_flash_ex.c ****   * @retval HAL status 
 764:Drivers/STM32F1xx_HAL_Driver/Src/stm32f1xx_hal_flash_ex.c ****   */
 765:Drivers/STM32F1xx_HAL_Driver/Src/stm32f1xx_hal_flash_ex.c **** static HAL_StatusTypeDef FLASH_OB_DisableWRP(uint32_t WriteProtectPage)
 766:Drivers/STM32F1xx_HAL_Driver/Src/stm32f1xx_hal_flash_ex.c **** {
 1018              		.loc 1 766 1
 1019              		.cfi_startproc
 1020              		@ args = 0, pretend = 0, frame = 24
 1021              		@ frame_needed = 1, uses_anonymous_args = 0
 1022 0000 80B5     		push	{r7, lr}
 1023              	.LCFI42:
 1024              		.cfi_def_cfa_offset 8
 1025              		.cfi_offset 7, -8
 1026              		.cfi_offset 14, -4
 1027 0002 86B0     		sub	sp, sp, #24
 1028              	.LCFI43:
 1029              		.cfi_def_cfa_offset 32
 1030 0004 00AF     		add	r7, sp, #0
 1031              	.LCFI44:
 1032              		.cfi_def_cfa_register 7
 1033 0006 7860     		str	r0, [r7, #4]
 767:Drivers/STM32F1xx_HAL_Driver/Src/stm32f1xx_hal_flash_ex.c ****   HAL_StatusTypeDef status = HAL_OK;
 1034              		.loc 1 767 21
 1035 0008 0023     		movs	r3, #0
 1036 000a FB75     		strb	r3, [r7, #23]
 768:Drivers/STM32F1xx_HAL_Driver/Src/stm32f1xx_hal_flash_ex.c ****   uint16_t WRP0_Data = 0xFFFF;
 1037              		.loc 1 768 12
 1038 000c 4FF6FF73 		movw	r3, #65535
 1039 0010 BB82     		strh	r3, [r7, #20]	@ movhi
 769:Drivers/STM32F1xx_HAL_Driver/Src/stm32f1xx_hal_flash_ex.c **** #if defined(FLASH_WRP1_WRP1)
 770:Drivers/STM32F1xx_HAL_Driver/Src/stm32f1xx_hal_flash_ex.c ****   uint16_t WRP1_Data = 0xFFFF;
 1040              		.loc 1 770 12
 1041 0012 4FF6FF73 		movw	r3, #65535
 1042 0016 7B82     		strh	r3, [r7, #18]	@ movhi
 771:Drivers/STM32F1xx_HAL_Driver/Src/stm32f1xx_hal_flash_ex.c **** #endif /* FLASH_WRP1_WRP1 */
 772:Drivers/STM32F1xx_HAL_Driver/Src/stm32f1xx_hal_flash_ex.c **** #if defined(FLASH_WRP2_WRP2)
 773:Drivers/STM32F1xx_HAL_Driver/Src/stm32f1xx_hal_flash_ex.c ****   uint16_t WRP2_Data = 0xFFFF;
 1043              		.loc 1 773 12
 1044 0018 4FF6FF73 		movw	r3, #65535
 1045 001c 3B82     		strh	r3, [r7, #16]	@ movhi
 774:Drivers/STM32F1xx_HAL_Driver/Src/stm32f1xx_hal_flash_ex.c **** #endif /* FLASH_WRP2_WRP2 */
 775:Drivers/STM32F1xx_HAL_Driver/Src/stm32f1xx_hal_flash_ex.c **** #if defined(FLASH_WRP3_WRP3)
 776:Drivers/STM32F1xx_HAL_Driver/Src/stm32f1xx_hal_flash_ex.c ****   uint16_t WRP3_Data = 0xFFFF;
 1046              		.loc 1 776 12
 1047 001e 4FF6FF73 		movw	r3, #65535
 1048 0022 FB81     		strh	r3, [r7, #14]	@ movhi
 777:Drivers/STM32F1xx_HAL_Driver/Src/stm32f1xx_hal_flash_ex.c **** #endif /* FLASH_WRP3_WRP3 */
 778:Drivers/STM32F1xx_HAL_Driver/Src/stm32f1xx_hal_flash_ex.c ****   
 779:Drivers/STM32F1xx_HAL_Driver/Src/stm32f1xx_hal_flash_ex.c ****   /* Check the parameters */
 780:Drivers/STM32F1xx_HAL_Driver/Src/stm32f1xx_hal_flash_ex.c ****   assert_param(IS_OB_WRP(WriteProtectPage));
 781:Drivers/STM32F1xx_HAL_Driver/Src/stm32f1xx_hal_flash_ex.c **** 
 782:Drivers/STM32F1xx_HAL_Driver/Src/stm32f1xx_hal_flash_ex.c ****   /* Get current write protected pages and the new pages to be unprotected ******/
 783:Drivers/STM32F1xx_HAL_Driver/Src/stm32f1xx_hal_flash_ex.c ****   WriteProtectPage = (FLASH_OB_GetWRP() | WriteProtectPage);
 1049              		.loc 1 783 23
 1050 0024 FFF7FEFF 		bl	FLASH_OB_GetWRP
 1051 0028 0246     		mov	r2, r0
 1052              		.loc 1 783 20
ARM GAS  C:\Users\Matvey\AppData\Local\Temp\cctkve6j.s 			page 33


 1053 002a 7B68     		ldr	r3, [r7, #4]
 1054 002c 1343     		orrs	r3, r3, r2
 1055 002e 7B60     		str	r3, [r7, #4]
 784:Drivers/STM32F1xx_HAL_Driver/Src/stm32f1xx_hal_flash_ex.c **** 
 785:Drivers/STM32F1xx_HAL_Driver/Src/stm32f1xx_hal_flash_ex.c **** #if defined(OB_WRP_PAGES0TO15MASK)
 786:Drivers/STM32F1xx_HAL_Driver/Src/stm32f1xx_hal_flash_ex.c ****   WRP0_Data = (uint16_t)(WriteProtectPage & OB_WRP_PAGES0TO15MASK);
 787:Drivers/STM32F1xx_HAL_Driver/Src/stm32f1xx_hal_flash_ex.c **** #elif defined(OB_WRP_PAGES0TO31MASK)
 788:Drivers/STM32F1xx_HAL_Driver/Src/stm32f1xx_hal_flash_ex.c ****   WRP0_Data = (uint16_t)(WriteProtectPage & OB_WRP_PAGES0TO31MASK);
 1056              		.loc 1 788 15
 1057 0030 7B68     		ldr	r3, [r7, #4]
 1058 0032 9BB2     		uxth	r3, r3
 1059              		.loc 1 788 13
 1060 0034 DBB2     		uxtb	r3, r3
 1061 0036 BB82     		strh	r3, [r7, #20]	@ movhi
 789:Drivers/STM32F1xx_HAL_Driver/Src/stm32f1xx_hal_flash_ex.c **** #endif /* OB_WRP_PAGES0TO31MASK */
 790:Drivers/STM32F1xx_HAL_Driver/Src/stm32f1xx_hal_flash_ex.c ****   
 791:Drivers/STM32F1xx_HAL_Driver/Src/stm32f1xx_hal_flash_ex.c **** #if defined(OB_WRP_PAGES16TO31MASK)
 792:Drivers/STM32F1xx_HAL_Driver/Src/stm32f1xx_hal_flash_ex.c ****   WRP1_Data = (uint16_t)((WriteProtectPage & OB_WRP_PAGES16TO31MASK) >> 8U);
 793:Drivers/STM32F1xx_HAL_Driver/Src/stm32f1xx_hal_flash_ex.c **** #elif defined(OB_WRP_PAGES32TO63MASK)
 794:Drivers/STM32F1xx_HAL_Driver/Src/stm32f1xx_hal_flash_ex.c ****   WRP1_Data = (uint16_t)((WriteProtectPage & OB_WRP_PAGES32TO63MASK) >> 8U);
 1062              		.loc 1 794 70
 1063 0038 7B68     		ldr	r3, [r7, #4]
 1064 003a 1B0A     		lsrs	r3, r3, #8
 1065              		.loc 1 794 15
 1066 003c 9BB2     		uxth	r3, r3
 1067              		.loc 1 794 13
 1068 003e DBB2     		uxtb	r3, r3
 1069 0040 7B82     		strh	r3, [r7, #18]	@ movhi
 795:Drivers/STM32F1xx_HAL_Driver/Src/stm32f1xx_hal_flash_ex.c **** #endif /* OB_WRP_PAGES32TO63MASK */
 796:Drivers/STM32F1xx_HAL_Driver/Src/stm32f1xx_hal_flash_ex.c ****  
 797:Drivers/STM32F1xx_HAL_Driver/Src/stm32f1xx_hal_flash_ex.c **** #if defined(OB_WRP_PAGES64TO95MASK)
 798:Drivers/STM32F1xx_HAL_Driver/Src/stm32f1xx_hal_flash_ex.c ****   WRP2_Data = (uint16_t)((WriteProtectPage & OB_WRP_PAGES64TO95MASK) >> 16U);
 1070              		.loc 1 798 70
 1071 0042 7B68     		ldr	r3, [r7, #4]
 1072 0044 1B0C     		lsrs	r3, r3, #16
 1073              		.loc 1 798 15
 1074 0046 9BB2     		uxth	r3, r3
 1075              		.loc 1 798 13
 1076 0048 DBB2     		uxtb	r3, r3
 1077 004a 3B82     		strh	r3, [r7, #16]	@ movhi
 799:Drivers/STM32F1xx_HAL_Driver/Src/stm32f1xx_hal_flash_ex.c **** #endif /* OB_WRP_PAGES64TO95MASK */
 800:Drivers/STM32F1xx_HAL_Driver/Src/stm32f1xx_hal_flash_ex.c **** #if defined(OB_WRP_PAGES32TO47MASK)
 801:Drivers/STM32F1xx_HAL_Driver/Src/stm32f1xx_hal_flash_ex.c ****   WRP2_Data = (uint16_t)((WriteProtectPage & OB_WRP_PAGES32TO47MASK) >> 16U);
 802:Drivers/STM32F1xx_HAL_Driver/Src/stm32f1xx_hal_flash_ex.c **** #endif /* OB_WRP_PAGES32TO47MASK */
 803:Drivers/STM32F1xx_HAL_Driver/Src/stm32f1xx_hal_flash_ex.c **** 
 804:Drivers/STM32F1xx_HAL_Driver/Src/stm32f1xx_hal_flash_ex.c **** #if defined(OB_WRP_PAGES96TO127MASK)
 805:Drivers/STM32F1xx_HAL_Driver/Src/stm32f1xx_hal_flash_ex.c ****   WRP3_Data = (uint16_t)((WriteProtectPage & OB_WRP_PAGES96TO127MASK) >> 24U); 
 1078              		.loc 1 805 71
 1079 004c 7B68     		ldr	r3, [r7, #4]
 1080 004e 1B0E     		lsrs	r3, r3, #24
 1081              		.loc 1 805 13
 1082 0050 FB81     		strh	r3, [r7, #14]	@ movhi
 806:Drivers/STM32F1xx_HAL_Driver/Src/stm32f1xx_hal_flash_ex.c **** #elif defined(OB_WRP_PAGES48TO255MASK)
 807:Drivers/STM32F1xx_HAL_Driver/Src/stm32f1xx_hal_flash_ex.c ****   WRP3_Data = (uint16_t)((WriteProtectPage & OB_WRP_PAGES48TO255MASK) >> 24U); 
 808:Drivers/STM32F1xx_HAL_Driver/Src/stm32f1xx_hal_flash_ex.c **** #elif defined(OB_WRP_PAGES48TO511MASK)
 809:Drivers/STM32F1xx_HAL_Driver/Src/stm32f1xx_hal_flash_ex.c ****   WRP3_Data = (uint16_t)((WriteProtectPage & OB_WRP_PAGES48TO511MASK) >> 24U); 
 810:Drivers/STM32F1xx_HAL_Driver/Src/stm32f1xx_hal_flash_ex.c **** #elif defined(OB_WRP_PAGES48TO127MASK)
ARM GAS  C:\Users\Matvey\AppData\Local\Temp\cctkve6j.s 			page 34


 811:Drivers/STM32F1xx_HAL_Driver/Src/stm32f1xx_hal_flash_ex.c ****   WRP3_Data = (uint16_t)((WriteProtectPage & OB_WRP_PAGES48TO127MASK) >> 24U); 
 812:Drivers/STM32F1xx_HAL_Driver/Src/stm32f1xx_hal_flash_ex.c **** #endif /* OB_WRP_PAGES96TO127MASK */
 813:Drivers/STM32F1xx_HAL_Driver/Src/stm32f1xx_hal_flash_ex.c **** 
 814:Drivers/STM32F1xx_HAL_Driver/Src/stm32f1xx_hal_flash_ex.c ****     
 815:Drivers/STM32F1xx_HAL_Driver/Src/stm32f1xx_hal_flash_ex.c ****   /* Wait for last operation to be completed */
 816:Drivers/STM32F1xx_HAL_Driver/Src/stm32f1xx_hal_flash_ex.c ****   status = FLASH_WaitForLastOperation((uint32_t)FLASH_TIMEOUT_VALUE);
 1083              		.loc 1 816 12
 1084 0052 4CF25030 		movw	r0, #50000
 1085 0056 FFF7FEFF 		bl	FLASH_WaitForLastOperation
 1086 005a 0346     		mov	r3, r0
 1087 005c FB75     		strb	r3, [r7, #23]
 817:Drivers/STM32F1xx_HAL_Driver/Src/stm32f1xx_hal_flash_ex.c **** 
 818:Drivers/STM32F1xx_HAL_Driver/Src/stm32f1xx_hal_flash_ex.c ****   if(status == HAL_OK)
 1088              		.loc 1 818 5
 1089 005e FB7D     		ldrb	r3, [r7, #23]	@ zero_extendqisi2
 1090 0060 002B     		cmp	r3, #0
 1091 0062 62D1     		bne	.L55
 819:Drivers/STM32F1xx_HAL_Driver/Src/stm32f1xx_hal_flash_ex.c ****   { 
 820:Drivers/STM32F1xx_HAL_Driver/Src/stm32f1xx_hal_flash_ex.c ****     /* Clean the error context */
 821:Drivers/STM32F1xx_HAL_Driver/Src/stm32f1xx_hal_flash_ex.c ****     pFlash.ErrorCode = HAL_FLASH_ERROR_NONE;
 1092              		.loc 1 821 22
 1093 0064 334B     		ldr	r3, .L61
 1094 0066 0022     		movs	r2, #0
 1095 0068 DA61     		str	r2, [r3, #28]
 822:Drivers/STM32F1xx_HAL_Driver/Src/stm32f1xx_hal_flash_ex.c **** 
 823:Drivers/STM32F1xx_HAL_Driver/Src/stm32f1xx_hal_flash_ex.c ****     /* To be able to write again option byte, need to perform a option byte erase */
 824:Drivers/STM32F1xx_HAL_Driver/Src/stm32f1xx_hal_flash_ex.c ****     status = HAL_FLASHEx_OBErase();
 1096              		.loc 1 824 14
 1097 006a FFF7FEFF 		bl	HAL_FLASHEx_OBErase
 1098 006e 0346     		mov	r3, r0
 1099 0070 FB75     		strb	r3, [r7, #23]
 825:Drivers/STM32F1xx_HAL_Driver/Src/stm32f1xx_hal_flash_ex.c ****     if (status == HAL_OK)  
 1100              		.loc 1 825 8
 1101 0072 FB7D     		ldrb	r3, [r7, #23]	@ zero_extendqisi2
 1102 0074 002B     		cmp	r3, #0
 1103 0076 58D1     		bne	.L55
 826:Drivers/STM32F1xx_HAL_Driver/Src/stm32f1xx_hal_flash_ex.c ****     {
 827:Drivers/STM32F1xx_HAL_Driver/Src/stm32f1xx_hal_flash_ex.c ****       SET_BIT(FLASH->CR, FLASH_CR_OPTPG);
 1104              		.loc 1 827 7
 1105 0078 2F4B     		ldr	r3, .L61+4
 1106 007a 1B69     		ldr	r3, [r3, #16]
 1107 007c 2E4A     		ldr	r2, .L61+4
 1108 007e 43F01003 		orr	r3, r3, #16
 1109 0082 1361     		str	r3, [r2, #16]
 828:Drivers/STM32F1xx_HAL_Driver/Src/stm32f1xx_hal_flash_ex.c **** 
 829:Drivers/STM32F1xx_HAL_Driver/Src/stm32f1xx_hal_flash_ex.c **** #if defined(FLASH_WRP0_WRP0)
 830:Drivers/STM32F1xx_HAL_Driver/Src/stm32f1xx_hal_flash_ex.c ****       if(WRP0_Data != 0xFFU)
 1110              		.loc 1 830 9
 1111 0084 BB8A     		ldrh	r3, [r7, #20]
 1112 0086 FF2B     		cmp	r3, #255
 1113 0088 0DD0     		beq	.L56
 831:Drivers/STM32F1xx_HAL_Driver/Src/stm32f1xx_hal_flash_ex.c ****       {
 832:Drivers/STM32F1xx_HAL_Driver/Src/stm32f1xx_hal_flash_ex.c ****         OB->WRP0 |= WRP0_Data;
 1114              		.loc 1 832 18
 1115 008a 2C4B     		ldr	r3, .L61+8
 1116 008c 1B89     		ldrh	r3, [r3, #8]	@ movhi
 1117 008e 9AB2     		uxth	r2, r3
ARM GAS  C:\Users\Matvey\AppData\Local\Temp\cctkve6j.s 			page 35


 1118 0090 2A49     		ldr	r1, .L61+8
 1119 0092 BB8A     		ldrh	r3, [r7, #20]	@ movhi
 1120 0094 1343     		orrs	r3, r3, r2
 1121 0096 9BB2     		uxth	r3, r3
 1122 0098 0B81     		strh	r3, [r1, #8]	@ movhi
 833:Drivers/STM32F1xx_HAL_Driver/Src/stm32f1xx_hal_flash_ex.c ****         
 834:Drivers/STM32F1xx_HAL_Driver/Src/stm32f1xx_hal_flash_ex.c ****         /* Wait for last operation to be completed */
 835:Drivers/STM32F1xx_HAL_Driver/Src/stm32f1xx_hal_flash_ex.c ****         status = FLASH_WaitForLastOperation((uint32_t)FLASH_TIMEOUT_VALUE);
 1123              		.loc 1 835 18
 1124 009a 4CF25030 		movw	r0, #50000
 1125 009e FFF7FEFF 		bl	FLASH_WaitForLastOperation
 1126 00a2 0346     		mov	r3, r0
 1127 00a4 FB75     		strb	r3, [r7, #23]
 1128              	.L56:
 836:Drivers/STM32F1xx_HAL_Driver/Src/stm32f1xx_hal_flash_ex.c ****       }
 837:Drivers/STM32F1xx_HAL_Driver/Src/stm32f1xx_hal_flash_ex.c **** #endif /* FLASH_WRP0_WRP0 */
 838:Drivers/STM32F1xx_HAL_Driver/Src/stm32f1xx_hal_flash_ex.c **** 
 839:Drivers/STM32F1xx_HAL_Driver/Src/stm32f1xx_hal_flash_ex.c **** #if defined(FLASH_WRP1_WRP1)
 840:Drivers/STM32F1xx_HAL_Driver/Src/stm32f1xx_hal_flash_ex.c ****       if((status == HAL_OK) && (WRP1_Data != 0xFFU))
 1129              		.loc 1 840 9
 1130 00a6 FB7D     		ldrb	r3, [r7, #23]	@ zero_extendqisi2
 1131 00a8 002B     		cmp	r3, #0
 1132 00aa 10D1     		bne	.L57
 1133              		.loc 1 840 29 discriminator 1
 1134 00ac 7B8A     		ldrh	r3, [r7, #18]
 1135 00ae FF2B     		cmp	r3, #255
 1136 00b0 0DD0     		beq	.L57
 841:Drivers/STM32F1xx_HAL_Driver/Src/stm32f1xx_hal_flash_ex.c ****       {
 842:Drivers/STM32F1xx_HAL_Driver/Src/stm32f1xx_hal_flash_ex.c ****         OB->WRP1 |= WRP1_Data;
 1137              		.loc 1 842 18
 1138 00b2 224B     		ldr	r3, .L61+8
 1139 00b4 5B89     		ldrh	r3, [r3, #10]	@ movhi
 1140 00b6 9AB2     		uxth	r2, r3
 1141 00b8 2049     		ldr	r1, .L61+8
 1142 00ba 7B8A     		ldrh	r3, [r7, #18]	@ movhi
 1143 00bc 1343     		orrs	r3, r3, r2
 1144 00be 9BB2     		uxth	r3, r3
 1145 00c0 4B81     		strh	r3, [r1, #10]	@ movhi
 843:Drivers/STM32F1xx_HAL_Driver/Src/stm32f1xx_hal_flash_ex.c ****         
 844:Drivers/STM32F1xx_HAL_Driver/Src/stm32f1xx_hal_flash_ex.c ****         /* Wait for last operation to be completed */
 845:Drivers/STM32F1xx_HAL_Driver/Src/stm32f1xx_hal_flash_ex.c ****         status = FLASH_WaitForLastOperation((uint32_t)FLASH_TIMEOUT_VALUE);
 1146              		.loc 1 845 18
 1147 00c2 4CF25030 		movw	r0, #50000
 1148 00c6 FFF7FEFF 		bl	FLASH_WaitForLastOperation
 1149 00ca 0346     		mov	r3, r0
 1150 00cc FB75     		strb	r3, [r7, #23]
 1151              	.L57:
 846:Drivers/STM32F1xx_HAL_Driver/Src/stm32f1xx_hal_flash_ex.c ****       }
 847:Drivers/STM32F1xx_HAL_Driver/Src/stm32f1xx_hal_flash_ex.c **** #endif /* FLASH_WRP1_WRP1 */
 848:Drivers/STM32F1xx_HAL_Driver/Src/stm32f1xx_hal_flash_ex.c **** 
 849:Drivers/STM32F1xx_HAL_Driver/Src/stm32f1xx_hal_flash_ex.c **** #if defined(FLASH_WRP2_WRP2)
 850:Drivers/STM32F1xx_HAL_Driver/Src/stm32f1xx_hal_flash_ex.c ****       if((status == HAL_OK) && (WRP2_Data != 0xFFU))
 1152              		.loc 1 850 9
 1153 00ce FB7D     		ldrb	r3, [r7, #23]	@ zero_extendqisi2
 1154 00d0 002B     		cmp	r3, #0
 1155 00d2 10D1     		bne	.L58
 1156              		.loc 1 850 29 discriminator 1
ARM GAS  C:\Users\Matvey\AppData\Local\Temp\cctkve6j.s 			page 36


 1157 00d4 3B8A     		ldrh	r3, [r7, #16]
 1158 00d6 FF2B     		cmp	r3, #255
 1159 00d8 0DD0     		beq	.L58
 851:Drivers/STM32F1xx_HAL_Driver/Src/stm32f1xx_hal_flash_ex.c ****       {
 852:Drivers/STM32F1xx_HAL_Driver/Src/stm32f1xx_hal_flash_ex.c ****         OB->WRP2 |= WRP2_Data;
 1160              		.loc 1 852 18
 1161 00da 184B     		ldr	r3, .L61+8
 1162 00dc 9B89     		ldrh	r3, [r3, #12]	@ movhi
 1163 00de 9AB2     		uxth	r2, r3
 1164 00e0 1649     		ldr	r1, .L61+8
 1165 00e2 3B8A     		ldrh	r3, [r7, #16]	@ movhi
 1166 00e4 1343     		orrs	r3, r3, r2
 1167 00e6 9BB2     		uxth	r3, r3
 1168 00e8 8B81     		strh	r3, [r1, #12]	@ movhi
 853:Drivers/STM32F1xx_HAL_Driver/Src/stm32f1xx_hal_flash_ex.c ****         
 854:Drivers/STM32F1xx_HAL_Driver/Src/stm32f1xx_hal_flash_ex.c ****         /* Wait for last operation to be completed */
 855:Drivers/STM32F1xx_HAL_Driver/Src/stm32f1xx_hal_flash_ex.c ****         status = FLASH_WaitForLastOperation((uint32_t)FLASH_TIMEOUT_VALUE);
 1169              		.loc 1 855 18
 1170 00ea 4CF25030 		movw	r0, #50000
 1171 00ee FFF7FEFF 		bl	FLASH_WaitForLastOperation
 1172 00f2 0346     		mov	r3, r0
 1173 00f4 FB75     		strb	r3, [r7, #23]
 1174              	.L58:
 856:Drivers/STM32F1xx_HAL_Driver/Src/stm32f1xx_hal_flash_ex.c ****       }
 857:Drivers/STM32F1xx_HAL_Driver/Src/stm32f1xx_hal_flash_ex.c **** #endif /* FLASH_WRP2_WRP2 */
 858:Drivers/STM32F1xx_HAL_Driver/Src/stm32f1xx_hal_flash_ex.c **** 
 859:Drivers/STM32F1xx_HAL_Driver/Src/stm32f1xx_hal_flash_ex.c **** #if defined(FLASH_WRP3_WRP3)
 860:Drivers/STM32F1xx_HAL_Driver/Src/stm32f1xx_hal_flash_ex.c ****       if((status == HAL_OK) && (WRP3_Data != 0xFFU))
 1175              		.loc 1 860 9
 1176 00f6 FB7D     		ldrb	r3, [r7, #23]	@ zero_extendqisi2
 1177 00f8 002B     		cmp	r3, #0
 1178 00fa 10D1     		bne	.L59
 1179              		.loc 1 860 29 discriminator 1
 1180 00fc FB89     		ldrh	r3, [r7, #14]
 1181 00fe FF2B     		cmp	r3, #255
 1182 0100 0DD0     		beq	.L59
 861:Drivers/STM32F1xx_HAL_Driver/Src/stm32f1xx_hal_flash_ex.c ****       {
 862:Drivers/STM32F1xx_HAL_Driver/Src/stm32f1xx_hal_flash_ex.c ****         OB->WRP3 |= WRP3_Data;
 1183              		.loc 1 862 18
 1184 0102 0E4B     		ldr	r3, .L61+8
 1185 0104 DB89     		ldrh	r3, [r3, #14]	@ movhi
 1186 0106 9AB2     		uxth	r2, r3
 1187 0108 0C49     		ldr	r1, .L61+8
 1188 010a FB89     		ldrh	r3, [r7, #14]	@ movhi
 1189 010c 1343     		orrs	r3, r3, r2
 1190 010e 9BB2     		uxth	r3, r3
 1191 0110 CB81     		strh	r3, [r1, #14]	@ movhi
 863:Drivers/STM32F1xx_HAL_Driver/Src/stm32f1xx_hal_flash_ex.c ****         
 864:Drivers/STM32F1xx_HAL_Driver/Src/stm32f1xx_hal_flash_ex.c ****         /* Wait for last operation to be completed */
 865:Drivers/STM32F1xx_HAL_Driver/Src/stm32f1xx_hal_flash_ex.c ****         status = FLASH_WaitForLastOperation((uint32_t)FLASH_TIMEOUT_VALUE);
 1192              		.loc 1 865 18
 1193 0112 4CF25030 		movw	r0, #50000
 1194 0116 FFF7FEFF 		bl	FLASH_WaitForLastOperation
 1195 011a 0346     		mov	r3, r0
 1196 011c FB75     		strb	r3, [r7, #23]
 1197              	.L59:
 866:Drivers/STM32F1xx_HAL_Driver/Src/stm32f1xx_hal_flash_ex.c ****       }
ARM GAS  C:\Users\Matvey\AppData\Local\Temp\cctkve6j.s 			page 37


 867:Drivers/STM32F1xx_HAL_Driver/Src/stm32f1xx_hal_flash_ex.c **** #endif /* FLASH_WRP3_WRP3 */
 868:Drivers/STM32F1xx_HAL_Driver/Src/stm32f1xx_hal_flash_ex.c **** 
 869:Drivers/STM32F1xx_HAL_Driver/Src/stm32f1xx_hal_flash_ex.c ****       /* if the program operation is completed, disable the OPTPG Bit */
 870:Drivers/STM32F1xx_HAL_Driver/Src/stm32f1xx_hal_flash_ex.c ****       CLEAR_BIT(FLASH->CR, FLASH_CR_OPTPG);
 1198              		.loc 1 870 7
 1199 011e 064B     		ldr	r3, .L61+4
 1200 0120 1B69     		ldr	r3, [r3, #16]
 1201 0122 054A     		ldr	r2, .L61+4
 1202 0124 23F01003 		bic	r3, r3, #16
 1203 0128 1361     		str	r3, [r2, #16]
 1204              	.L55:
 871:Drivers/STM32F1xx_HAL_Driver/Src/stm32f1xx_hal_flash_ex.c ****     }
 872:Drivers/STM32F1xx_HAL_Driver/Src/stm32f1xx_hal_flash_ex.c ****   }
 873:Drivers/STM32F1xx_HAL_Driver/Src/stm32f1xx_hal_flash_ex.c ****   return status;
 1205              		.loc 1 873 10
 1206 012a FB7D     		ldrb	r3, [r7, #23]	@ zero_extendqisi2
 874:Drivers/STM32F1xx_HAL_Driver/Src/stm32f1xx_hal_flash_ex.c **** }
 1207              		.loc 1 874 1
 1208 012c 1846     		mov	r0, r3
 1209 012e 1837     		adds	r7, r7, #24
 1210              	.LCFI45:
 1211              		.cfi_def_cfa_offset 8
 1212 0130 BD46     		mov	sp, r7
 1213              	.LCFI46:
 1214              		.cfi_def_cfa_register 13
 1215              		@ sp needed
 1216 0132 80BD     		pop	{r7, pc}
 1217              	.L62:
 1218              		.align	2
 1219              	.L61:
 1220 0134 00000000 		.word	pFlash
 1221 0138 00200240 		.word	1073881088
 1222 013c 00F8FF1F 		.word	536868864
 1223              		.cfi_endproc
 1224              	.LFE73:
 1226              		.section	.text.FLASH_OB_RDP_LevelConfig,"ax",%progbits
 1227              		.align	1
 1228              		.syntax unified
 1229              		.thumb
 1230              		.thumb_func
 1232              	FLASH_OB_RDP_LevelConfig:
 1233              	.LFB74:
 875:Drivers/STM32F1xx_HAL_Driver/Src/stm32f1xx_hal_flash_ex.c **** 
 876:Drivers/STM32F1xx_HAL_Driver/Src/stm32f1xx_hal_flash_ex.c **** /**
 877:Drivers/STM32F1xx_HAL_Driver/Src/stm32f1xx_hal_flash_ex.c ****   * @brief  Set the read protection level.
 878:Drivers/STM32F1xx_HAL_Driver/Src/stm32f1xx_hal_flash_ex.c ****   * @param  ReadProtectLevel specifies the read protection level.
 879:Drivers/STM32F1xx_HAL_Driver/Src/stm32f1xx_hal_flash_ex.c ****   *         This parameter can be one of the following values:
 880:Drivers/STM32F1xx_HAL_Driver/Src/stm32f1xx_hal_flash_ex.c ****   *            @arg @ref OB_RDP_LEVEL_0 No protection
 881:Drivers/STM32F1xx_HAL_Driver/Src/stm32f1xx_hal_flash_ex.c ****   *            @arg @ref OB_RDP_LEVEL_1 Read protection of the memory
 882:Drivers/STM32F1xx_HAL_Driver/Src/stm32f1xx_hal_flash_ex.c ****   * @retval HAL status
 883:Drivers/STM32F1xx_HAL_Driver/Src/stm32f1xx_hal_flash_ex.c ****   */
 884:Drivers/STM32F1xx_HAL_Driver/Src/stm32f1xx_hal_flash_ex.c **** static HAL_StatusTypeDef FLASH_OB_RDP_LevelConfig(uint8_t ReadProtectLevel)
 885:Drivers/STM32F1xx_HAL_Driver/Src/stm32f1xx_hal_flash_ex.c **** {
 1234              		.loc 1 885 1
 1235              		.cfi_startproc
 1236              		@ args = 0, pretend = 0, frame = 16
 1237              		@ frame_needed = 1, uses_anonymous_args = 0
ARM GAS  C:\Users\Matvey\AppData\Local\Temp\cctkve6j.s 			page 38


 1238 0000 80B5     		push	{r7, lr}
 1239              	.LCFI47:
 1240              		.cfi_def_cfa_offset 8
 1241              		.cfi_offset 7, -8
 1242              		.cfi_offset 14, -4
 1243 0002 84B0     		sub	sp, sp, #16
 1244              	.LCFI48:
 1245              		.cfi_def_cfa_offset 24
 1246 0004 00AF     		add	r7, sp, #0
 1247              	.LCFI49:
 1248              		.cfi_def_cfa_register 7
 1249 0006 0346     		mov	r3, r0
 1250 0008 FB71     		strb	r3, [r7, #7]
 886:Drivers/STM32F1xx_HAL_Driver/Src/stm32f1xx_hal_flash_ex.c ****   HAL_StatusTypeDef status = HAL_OK;
 1251              		.loc 1 886 21
 1252 000a 0023     		movs	r3, #0
 1253 000c FB73     		strb	r3, [r7, #15]
 887:Drivers/STM32F1xx_HAL_Driver/Src/stm32f1xx_hal_flash_ex.c ****   
 888:Drivers/STM32F1xx_HAL_Driver/Src/stm32f1xx_hal_flash_ex.c ****   /* Check the parameters */
 889:Drivers/STM32F1xx_HAL_Driver/Src/stm32f1xx_hal_flash_ex.c ****   assert_param(IS_OB_RDP_LEVEL(ReadProtectLevel));
 890:Drivers/STM32F1xx_HAL_Driver/Src/stm32f1xx_hal_flash_ex.c ****   
 891:Drivers/STM32F1xx_HAL_Driver/Src/stm32f1xx_hal_flash_ex.c ****   /* Wait for last operation to be completed */
 892:Drivers/STM32F1xx_HAL_Driver/Src/stm32f1xx_hal_flash_ex.c ****   status = FLASH_WaitForLastOperation((uint32_t)FLASH_TIMEOUT_VALUE);
 1254              		.loc 1 892 12
 1255 000e 4CF25030 		movw	r0, #50000
 1256 0012 FFF7FEFF 		bl	FLASH_WaitForLastOperation
 1257 0016 0346     		mov	r3, r0
 1258 0018 FB73     		strb	r3, [r7, #15]
 893:Drivers/STM32F1xx_HAL_Driver/Src/stm32f1xx_hal_flash_ex.c ****   
 894:Drivers/STM32F1xx_HAL_Driver/Src/stm32f1xx_hal_flash_ex.c ****   if(status == HAL_OK)
 1259              		.loc 1 894 5
 1260 001a FB7B     		ldrb	r3, [r7, #15]	@ zero_extendqisi2
 1261 001c 002B     		cmp	r3, #0
 1262 001e 33D1     		bne	.L64
 895:Drivers/STM32F1xx_HAL_Driver/Src/stm32f1xx_hal_flash_ex.c ****   { 
 896:Drivers/STM32F1xx_HAL_Driver/Src/stm32f1xx_hal_flash_ex.c ****     /* Clean the error context */
 897:Drivers/STM32F1xx_HAL_Driver/Src/stm32f1xx_hal_flash_ex.c ****     pFlash.ErrorCode = HAL_FLASH_ERROR_NONE;
 1263              		.loc 1 897 22
 1264 0020 1C4B     		ldr	r3, .L66
 1265 0022 0022     		movs	r2, #0
 1266 0024 DA61     		str	r2, [r3, #28]
 898:Drivers/STM32F1xx_HAL_Driver/Src/stm32f1xx_hal_flash_ex.c ****     
 899:Drivers/STM32F1xx_HAL_Driver/Src/stm32f1xx_hal_flash_ex.c ****     /* If the previous operation is completed, proceed to erase the option bytes */
 900:Drivers/STM32F1xx_HAL_Driver/Src/stm32f1xx_hal_flash_ex.c ****     SET_BIT(FLASH->CR, FLASH_CR_OPTER);
 1267              		.loc 1 900 5
 1268 0026 1C4B     		ldr	r3, .L66+4
 1269 0028 1B69     		ldr	r3, [r3, #16]
 1270 002a 1B4A     		ldr	r2, .L66+4
 1271 002c 43F02003 		orr	r3, r3, #32
 1272 0030 1361     		str	r3, [r2, #16]
 901:Drivers/STM32F1xx_HAL_Driver/Src/stm32f1xx_hal_flash_ex.c ****     SET_BIT(FLASH->CR, FLASH_CR_STRT);
 1273              		.loc 1 901 5
 1274 0032 194B     		ldr	r3, .L66+4
 1275 0034 1B69     		ldr	r3, [r3, #16]
 1276 0036 184A     		ldr	r2, .L66+4
 1277 0038 43F04003 		orr	r3, r3, #64
 1278 003c 1361     		str	r3, [r2, #16]
ARM GAS  C:\Users\Matvey\AppData\Local\Temp\cctkve6j.s 			page 39


 902:Drivers/STM32F1xx_HAL_Driver/Src/stm32f1xx_hal_flash_ex.c **** 
 903:Drivers/STM32F1xx_HAL_Driver/Src/stm32f1xx_hal_flash_ex.c ****     /* Wait for last operation to be completed */
 904:Drivers/STM32F1xx_HAL_Driver/Src/stm32f1xx_hal_flash_ex.c ****     status = FLASH_WaitForLastOperation((uint32_t)FLASH_TIMEOUT_VALUE);
 1279              		.loc 1 904 14
 1280 003e 4CF25030 		movw	r0, #50000
 1281 0042 FFF7FEFF 		bl	FLASH_WaitForLastOperation
 1282 0046 0346     		mov	r3, r0
 1283 0048 FB73     		strb	r3, [r7, #15]
 905:Drivers/STM32F1xx_HAL_Driver/Src/stm32f1xx_hal_flash_ex.c **** 
 906:Drivers/STM32F1xx_HAL_Driver/Src/stm32f1xx_hal_flash_ex.c ****     /* If the erase operation is completed, disable the OPTER Bit */
 907:Drivers/STM32F1xx_HAL_Driver/Src/stm32f1xx_hal_flash_ex.c ****     CLEAR_BIT(FLASH->CR, FLASH_CR_OPTER);
 1284              		.loc 1 907 5
 1285 004a 134B     		ldr	r3, .L66+4
 1286 004c 1B69     		ldr	r3, [r3, #16]
 1287 004e 124A     		ldr	r2, .L66+4
 1288 0050 23F02003 		bic	r3, r3, #32
 1289 0054 1361     		str	r3, [r2, #16]
 908:Drivers/STM32F1xx_HAL_Driver/Src/stm32f1xx_hal_flash_ex.c **** 
 909:Drivers/STM32F1xx_HAL_Driver/Src/stm32f1xx_hal_flash_ex.c ****     if(status == HAL_OK)
 1290              		.loc 1 909 7
 1291 0056 FB7B     		ldrb	r3, [r7, #15]	@ zero_extendqisi2
 1292 0058 002B     		cmp	r3, #0
 1293 005a 15D1     		bne	.L64
 910:Drivers/STM32F1xx_HAL_Driver/Src/stm32f1xx_hal_flash_ex.c ****     {
 911:Drivers/STM32F1xx_HAL_Driver/Src/stm32f1xx_hal_flash_ex.c ****       /* Enable the Option Bytes Programming operation */
 912:Drivers/STM32F1xx_HAL_Driver/Src/stm32f1xx_hal_flash_ex.c ****       SET_BIT(FLASH->CR, FLASH_CR_OPTPG);
 1294              		.loc 1 912 7
 1295 005c 0E4B     		ldr	r3, .L66+4
 1296 005e 1B69     		ldr	r3, [r3, #16]
 1297 0060 0D4A     		ldr	r2, .L66+4
 1298 0062 43F01003 		orr	r3, r3, #16
 1299 0066 1361     		str	r3, [r2, #16]
 913:Drivers/STM32F1xx_HAL_Driver/Src/stm32f1xx_hal_flash_ex.c ****       
 914:Drivers/STM32F1xx_HAL_Driver/Src/stm32f1xx_hal_flash_ex.c ****       WRITE_REG(OB->RDP, ReadProtectLevel);
 1300              		.loc 1 914 7
 1301 0068 0C4B     		ldr	r3, .L66+8
 1302 006a FA79     		ldrb	r2, [r7, #7]	@ zero_extendqisi2
 1303 006c 92B2     		uxth	r2, r2
 1304 006e 1A80     		strh	r2, [r3]	@ movhi
 915:Drivers/STM32F1xx_HAL_Driver/Src/stm32f1xx_hal_flash_ex.c ****       
 916:Drivers/STM32F1xx_HAL_Driver/Src/stm32f1xx_hal_flash_ex.c ****       /* Wait for last operation to be completed */
 917:Drivers/STM32F1xx_HAL_Driver/Src/stm32f1xx_hal_flash_ex.c ****       status = FLASH_WaitForLastOperation((uint32_t)FLASH_TIMEOUT_VALUE); 
 1305              		.loc 1 917 16
 1306 0070 4CF25030 		movw	r0, #50000
 1307 0074 FFF7FEFF 		bl	FLASH_WaitForLastOperation
 1308 0078 0346     		mov	r3, r0
 1309 007a FB73     		strb	r3, [r7, #15]
 918:Drivers/STM32F1xx_HAL_Driver/Src/stm32f1xx_hal_flash_ex.c ****       
 919:Drivers/STM32F1xx_HAL_Driver/Src/stm32f1xx_hal_flash_ex.c ****       /* if the program operation is completed, disable the OPTPG Bit */
 920:Drivers/STM32F1xx_HAL_Driver/Src/stm32f1xx_hal_flash_ex.c ****       CLEAR_BIT(FLASH->CR, FLASH_CR_OPTPG);
 1310              		.loc 1 920 7
 1311 007c 064B     		ldr	r3, .L66+4
 1312 007e 1B69     		ldr	r3, [r3, #16]
 1313 0080 054A     		ldr	r2, .L66+4
 1314 0082 23F01003 		bic	r3, r3, #16
 1315 0086 1361     		str	r3, [r2, #16]
 1316              	.L64:
ARM GAS  C:\Users\Matvey\AppData\Local\Temp\cctkve6j.s 			page 40


 921:Drivers/STM32F1xx_HAL_Driver/Src/stm32f1xx_hal_flash_ex.c ****     }
 922:Drivers/STM32F1xx_HAL_Driver/Src/stm32f1xx_hal_flash_ex.c ****   }
 923:Drivers/STM32F1xx_HAL_Driver/Src/stm32f1xx_hal_flash_ex.c ****   
 924:Drivers/STM32F1xx_HAL_Driver/Src/stm32f1xx_hal_flash_ex.c ****   return status;
 1317              		.loc 1 924 10
 1318 0088 FB7B     		ldrb	r3, [r7, #15]	@ zero_extendqisi2
 925:Drivers/STM32F1xx_HAL_Driver/Src/stm32f1xx_hal_flash_ex.c **** }
 1319              		.loc 1 925 1
 1320 008a 1846     		mov	r0, r3
 1321 008c 1037     		adds	r7, r7, #16
 1322              	.LCFI50:
 1323              		.cfi_def_cfa_offset 8
 1324 008e BD46     		mov	sp, r7
 1325              	.LCFI51:
 1326              		.cfi_def_cfa_register 13
 1327              		@ sp needed
 1328 0090 80BD     		pop	{r7, pc}
 1329              	.L67:
 1330 0092 00BF     		.align	2
 1331              	.L66:
 1332 0094 00000000 		.word	pFlash
 1333 0098 00200240 		.word	1073881088
 1334 009c 00F8FF1F 		.word	536868864
 1335              		.cfi_endproc
 1336              	.LFE74:
 1338              		.section	.text.FLASH_OB_UserConfig,"ax",%progbits
 1339              		.align	1
 1340              		.syntax unified
 1341              		.thumb
 1342              		.thumb_func
 1344              	FLASH_OB_UserConfig:
 1345              	.LFB75:
 926:Drivers/STM32F1xx_HAL_Driver/Src/stm32f1xx_hal_flash_ex.c **** 
 927:Drivers/STM32F1xx_HAL_Driver/Src/stm32f1xx_hal_flash_ex.c **** /**
 928:Drivers/STM32F1xx_HAL_Driver/Src/stm32f1xx_hal_flash_ex.c ****   * @brief  Program the FLASH User Option Byte.    
 929:Drivers/STM32F1xx_HAL_Driver/Src/stm32f1xx_hal_flash_ex.c ****   * @note   Programming of the OB should be performed only after an erase (otherwise PGERR occurs)
 930:Drivers/STM32F1xx_HAL_Driver/Src/stm32f1xx_hal_flash_ex.c ****   * @param  UserConfig The FLASH User Option Bytes values FLASH_OBR_IWDG_SW(Bit2), 
 931:Drivers/STM32F1xx_HAL_Driver/Src/stm32f1xx_hal_flash_ex.c ****   *         FLASH_OBR_nRST_STOP(Bit3),FLASH_OBR_nRST_STDBY(Bit4).
 932:Drivers/STM32F1xx_HAL_Driver/Src/stm32f1xx_hal_flash_ex.c ****   *         And BFBF2(Bit5) for STM32F101xG and STM32F103xG . 
 933:Drivers/STM32F1xx_HAL_Driver/Src/stm32f1xx_hal_flash_ex.c ****   * @retval HAL status
 934:Drivers/STM32F1xx_HAL_Driver/Src/stm32f1xx_hal_flash_ex.c ****   */
 935:Drivers/STM32F1xx_HAL_Driver/Src/stm32f1xx_hal_flash_ex.c **** static HAL_StatusTypeDef FLASH_OB_UserConfig(uint8_t UserConfig)
 936:Drivers/STM32F1xx_HAL_Driver/Src/stm32f1xx_hal_flash_ex.c **** {
 1346              		.loc 1 936 1
 1347              		.cfi_startproc
 1348              		@ args = 0, pretend = 0, frame = 16
 1349              		@ frame_needed = 1, uses_anonymous_args = 0
 1350 0000 80B5     		push	{r7, lr}
 1351              	.LCFI52:
 1352              		.cfi_def_cfa_offset 8
 1353              		.cfi_offset 7, -8
 1354              		.cfi_offset 14, -4
 1355 0002 84B0     		sub	sp, sp, #16
 1356              	.LCFI53:
 1357              		.cfi_def_cfa_offset 24
 1358 0004 00AF     		add	r7, sp, #0
 1359              	.LCFI54:
ARM GAS  C:\Users\Matvey\AppData\Local\Temp\cctkve6j.s 			page 41


 1360              		.cfi_def_cfa_register 7
 1361 0006 0346     		mov	r3, r0
 1362 0008 FB71     		strb	r3, [r7, #7]
 937:Drivers/STM32F1xx_HAL_Driver/Src/stm32f1xx_hal_flash_ex.c ****   HAL_StatusTypeDef status = HAL_OK;
 1363              		.loc 1 937 21
 1364 000a 0023     		movs	r3, #0
 1365 000c FB73     		strb	r3, [r7, #15]
 938:Drivers/STM32F1xx_HAL_Driver/Src/stm32f1xx_hal_flash_ex.c **** 
 939:Drivers/STM32F1xx_HAL_Driver/Src/stm32f1xx_hal_flash_ex.c ****   /* Check the parameters */
 940:Drivers/STM32F1xx_HAL_Driver/Src/stm32f1xx_hal_flash_ex.c ****   assert_param(IS_OB_IWDG_SOURCE((UserConfig&OB_IWDG_SW)));
 941:Drivers/STM32F1xx_HAL_Driver/Src/stm32f1xx_hal_flash_ex.c ****   assert_param(IS_OB_STOP_SOURCE((UserConfig&OB_STOP_NO_RST)));
 942:Drivers/STM32F1xx_HAL_Driver/Src/stm32f1xx_hal_flash_ex.c ****   assert_param(IS_OB_STDBY_SOURCE((UserConfig&OB_STDBY_NO_RST)));
 943:Drivers/STM32F1xx_HAL_Driver/Src/stm32f1xx_hal_flash_ex.c **** #if defined(FLASH_BANK2_END)
 944:Drivers/STM32F1xx_HAL_Driver/Src/stm32f1xx_hal_flash_ex.c ****   assert_param(IS_OB_BOOT1((UserConfig&OB_BOOT1_SET)));
 945:Drivers/STM32F1xx_HAL_Driver/Src/stm32f1xx_hal_flash_ex.c **** #endif /* FLASH_BANK2_END */
 946:Drivers/STM32F1xx_HAL_Driver/Src/stm32f1xx_hal_flash_ex.c **** 
 947:Drivers/STM32F1xx_HAL_Driver/Src/stm32f1xx_hal_flash_ex.c ****   /* Wait for last operation to be completed */
 948:Drivers/STM32F1xx_HAL_Driver/Src/stm32f1xx_hal_flash_ex.c ****   status = FLASH_WaitForLastOperation((uint32_t)FLASH_TIMEOUT_VALUE);
 1366              		.loc 1 948 12
 1367 000e 4CF25030 		movw	r0, #50000
 1368 0012 FFF7FEFF 		bl	FLASH_WaitForLastOperation
 1369 0016 0346     		mov	r3, r0
 1370 0018 FB73     		strb	r3, [r7, #15]
 949:Drivers/STM32F1xx_HAL_Driver/Src/stm32f1xx_hal_flash_ex.c ****   
 950:Drivers/STM32F1xx_HAL_Driver/Src/stm32f1xx_hal_flash_ex.c ****   if(status == HAL_OK)
 1371              		.loc 1 950 5
 1372 001a FB7B     		ldrb	r3, [r7, #15]	@ zero_extendqisi2
 1373 001c 002B     		cmp	r3, #0
 1374 001e 1BD1     		bne	.L69
 951:Drivers/STM32F1xx_HAL_Driver/Src/stm32f1xx_hal_flash_ex.c ****   {     
 952:Drivers/STM32F1xx_HAL_Driver/Src/stm32f1xx_hal_flash_ex.c ****     /* Clean the error context */
 953:Drivers/STM32F1xx_HAL_Driver/Src/stm32f1xx_hal_flash_ex.c ****     pFlash.ErrorCode = HAL_FLASH_ERROR_NONE;
 1375              		.loc 1 953 22
 1376 0020 104B     		ldr	r3, .L71
 1377 0022 0022     		movs	r2, #0
 1378 0024 DA61     		str	r2, [r3, #28]
 954:Drivers/STM32F1xx_HAL_Driver/Src/stm32f1xx_hal_flash_ex.c **** 
 955:Drivers/STM32F1xx_HAL_Driver/Src/stm32f1xx_hal_flash_ex.c ****     /* Enable the Option Bytes Programming operation */
 956:Drivers/STM32F1xx_HAL_Driver/Src/stm32f1xx_hal_flash_ex.c ****     SET_BIT(FLASH->CR, FLASH_CR_OPTPG); 
 1379              		.loc 1 956 5
 1380 0026 104B     		ldr	r3, .L71+4
 1381 0028 1B69     		ldr	r3, [r3, #16]
 1382 002a 0F4A     		ldr	r2, .L71+4
 1383 002c 43F01003 		orr	r3, r3, #16
 1384 0030 1361     		str	r3, [r2, #16]
 957:Drivers/STM32F1xx_HAL_Driver/Src/stm32f1xx_hal_flash_ex.c ****  
 958:Drivers/STM32F1xx_HAL_Driver/Src/stm32f1xx_hal_flash_ex.c **** #if defined(FLASH_BANK2_END)
 959:Drivers/STM32F1xx_HAL_Driver/Src/stm32f1xx_hal_flash_ex.c ****     OB->USER = (UserConfig | 0xF0U);
 960:Drivers/STM32F1xx_HAL_Driver/Src/stm32f1xx_hal_flash_ex.c **** #else
 961:Drivers/STM32F1xx_HAL_Driver/Src/stm32f1xx_hal_flash_ex.c ****     OB->USER = (UserConfig | 0x88U);
 1385              		.loc 1 961 14
 1386 0032 FB79     		ldrb	r3, [r7, #7]
 1387 0034 63F07703 		orn	r3, r3, #119
 1388 0038 DAB2     		uxtb	r2, r3
 1389              		.loc 1 961 7
 1390 003a 0C4B     		ldr	r3, .L71+8
 1391              		.loc 1 961 14
ARM GAS  C:\Users\Matvey\AppData\Local\Temp\cctkve6j.s 			page 42


 1392 003c 92B2     		uxth	r2, r2
 1393 003e 5A80     		strh	r2, [r3, #2]	@ movhi
 962:Drivers/STM32F1xx_HAL_Driver/Src/stm32f1xx_hal_flash_ex.c **** #endif /* FLASH_BANK2_END */
 963:Drivers/STM32F1xx_HAL_Driver/Src/stm32f1xx_hal_flash_ex.c **** 
 964:Drivers/STM32F1xx_HAL_Driver/Src/stm32f1xx_hal_flash_ex.c ****     /* Wait for last operation to be completed */
 965:Drivers/STM32F1xx_HAL_Driver/Src/stm32f1xx_hal_flash_ex.c ****     status = FLASH_WaitForLastOperation((uint32_t)FLASH_TIMEOUT_VALUE);
 1394              		.loc 1 965 14
 1395 0040 4CF25030 		movw	r0, #50000
 1396 0044 FFF7FEFF 		bl	FLASH_WaitForLastOperation
 1397 0048 0346     		mov	r3, r0
 1398 004a FB73     		strb	r3, [r7, #15]
 966:Drivers/STM32F1xx_HAL_Driver/Src/stm32f1xx_hal_flash_ex.c **** 
 967:Drivers/STM32F1xx_HAL_Driver/Src/stm32f1xx_hal_flash_ex.c ****     /* if the program operation is completed, disable the OPTPG Bit */
 968:Drivers/STM32F1xx_HAL_Driver/Src/stm32f1xx_hal_flash_ex.c ****     CLEAR_BIT(FLASH->CR, FLASH_CR_OPTPG);
 1399              		.loc 1 968 5
 1400 004c 064B     		ldr	r3, .L71+4
 1401 004e 1B69     		ldr	r3, [r3, #16]
 1402 0050 054A     		ldr	r2, .L71+4
 1403 0052 23F01003 		bic	r3, r3, #16
 1404 0056 1361     		str	r3, [r2, #16]
 1405              	.L69:
 969:Drivers/STM32F1xx_HAL_Driver/Src/stm32f1xx_hal_flash_ex.c ****   }
 970:Drivers/STM32F1xx_HAL_Driver/Src/stm32f1xx_hal_flash_ex.c ****   
 971:Drivers/STM32F1xx_HAL_Driver/Src/stm32f1xx_hal_flash_ex.c ****   return status; 
 1406              		.loc 1 971 10
 1407 0058 FB7B     		ldrb	r3, [r7, #15]	@ zero_extendqisi2
 972:Drivers/STM32F1xx_HAL_Driver/Src/stm32f1xx_hal_flash_ex.c **** }
 1408              		.loc 1 972 1
 1409 005a 1846     		mov	r0, r3
 1410 005c 1037     		adds	r7, r7, #16
 1411              	.LCFI55:
 1412              		.cfi_def_cfa_offset 8
 1413 005e BD46     		mov	sp, r7
 1414              	.LCFI56:
 1415              		.cfi_def_cfa_register 13
 1416              		@ sp needed
 1417 0060 80BD     		pop	{r7, pc}
 1418              	.L72:
 1419 0062 00BF     		.align	2
 1420              	.L71:
 1421 0064 00000000 		.word	pFlash
 1422 0068 00200240 		.word	1073881088
 1423 006c 00F8FF1F 		.word	536868864
 1424              		.cfi_endproc
 1425              	.LFE75:
 1427              		.section	.text.FLASH_OB_ProgramData,"ax",%progbits
 1428              		.align	1
 1429              		.syntax unified
 1430              		.thumb
 1431              		.thumb_func
 1433              	FLASH_OB_ProgramData:
 1434              	.LFB76:
 973:Drivers/STM32F1xx_HAL_Driver/Src/stm32f1xx_hal_flash_ex.c **** 
 974:Drivers/STM32F1xx_HAL_Driver/Src/stm32f1xx_hal_flash_ex.c **** /**
 975:Drivers/STM32F1xx_HAL_Driver/Src/stm32f1xx_hal_flash_ex.c ****   * @brief  Programs a half word at a specified Option Byte Data address.
 976:Drivers/STM32F1xx_HAL_Driver/Src/stm32f1xx_hal_flash_ex.c ****   * @note   The function @ref HAL_FLASH_Unlock() should be called before to unlock the FLASH interf
 977:Drivers/STM32F1xx_HAL_Driver/Src/stm32f1xx_hal_flash_ex.c ****   *         The function @ref HAL_FLASH_OB_Unlock() should be called before to unlock the options b
ARM GAS  C:\Users\Matvey\AppData\Local\Temp\cctkve6j.s 			page 43


 978:Drivers/STM32F1xx_HAL_Driver/Src/stm32f1xx_hal_flash_ex.c ****   *         The function @ref HAL_FLASH_OB_Launch() should be called after to force the reload of t
 979:Drivers/STM32F1xx_HAL_Driver/Src/stm32f1xx_hal_flash_ex.c ****   *         (system reset will occur)
 980:Drivers/STM32F1xx_HAL_Driver/Src/stm32f1xx_hal_flash_ex.c ****   *         Programming of the OB should be performed only after an erase (otherwise PGERR occurs)
 981:Drivers/STM32F1xx_HAL_Driver/Src/stm32f1xx_hal_flash_ex.c ****   * @param  Address specifies the address to be programmed.
 982:Drivers/STM32F1xx_HAL_Driver/Src/stm32f1xx_hal_flash_ex.c ****   *         This parameter can be 0x1FFFF804 or 0x1FFFF806. 
 983:Drivers/STM32F1xx_HAL_Driver/Src/stm32f1xx_hal_flash_ex.c ****   * @param  Data specifies the data to be programmed.
 984:Drivers/STM32F1xx_HAL_Driver/Src/stm32f1xx_hal_flash_ex.c ****   * @retval HAL status
 985:Drivers/STM32F1xx_HAL_Driver/Src/stm32f1xx_hal_flash_ex.c ****   */
 986:Drivers/STM32F1xx_HAL_Driver/Src/stm32f1xx_hal_flash_ex.c **** static HAL_StatusTypeDef FLASH_OB_ProgramData(uint32_t Address, uint8_t Data)
 987:Drivers/STM32F1xx_HAL_Driver/Src/stm32f1xx_hal_flash_ex.c **** {
 1435              		.loc 1 987 1
 1436              		.cfi_startproc
 1437              		@ args = 0, pretend = 0, frame = 16
 1438              		@ frame_needed = 1, uses_anonymous_args = 0
 1439 0000 80B5     		push	{r7, lr}
 1440              	.LCFI57:
 1441              		.cfi_def_cfa_offset 8
 1442              		.cfi_offset 7, -8
 1443              		.cfi_offset 14, -4
 1444 0002 84B0     		sub	sp, sp, #16
 1445              	.LCFI58:
 1446              		.cfi_def_cfa_offset 24
 1447 0004 00AF     		add	r7, sp, #0
 1448              	.LCFI59:
 1449              		.cfi_def_cfa_register 7
 1450 0006 7860     		str	r0, [r7, #4]
 1451 0008 0B46     		mov	r3, r1
 1452 000a FB70     		strb	r3, [r7, #3]
 988:Drivers/STM32F1xx_HAL_Driver/Src/stm32f1xx_hal_flash_ex.c ****   HAL_StatusTypeDef status = HAL_ERROR;
 1453              		.loc 1 988 21
 1454 000c 0123     		movs	r3, #1
 1455 000e FB73     		strb	r3, [r7, #15]
 989:Drivers/STM32F1xx_HAL_Driver/Src/stm32f1xx_hal_flash_ex.c ****   
 990:Drivers/STM32F1xx_HAL_Driver/Src/stm32f1xx_hal_flash_ex.c ****   /* Check the parameters */
 991:Drivers/STM32F1xx_HAL_Driver/Src/stm32f1xx_hal_flash_ex.c ****   assert_param(IS_OB_DATA_ADDRESS(Address));
 992:Drivers/STM32F1xx_HAL_Driver/Src/stm32f1xx_hal_flash_ex.c ****   
 993:Drivers/STM32F1xx_HAL_Driver/Src/stm32f1xx_hal_flash_ex.c ****   /* Wait for last operation to be completed */
 994:Drivers/STM32F1xx_HAL_Driver/Src/stm32f1xx_hal_flash_ex.c ****   status = FLASH_WaitForLastOperation((uint32_t)FLASH_TIMEOUT_VALUE);
 1456              		.loc 1 994 12
 1457 0010 4CF25030 		movw	r0, #50000
 1458 0014 FFF7FEFF 		bl	FLASH_WaitForLastOperation
 1459 0018 0346     		mov	r3, r0
 1460 001a FB73     		strb	r3, [r7, #15]
 995:Drivers/STM32F1xx_HAL_Driver/Src/stm32f1xx_hal_flash_ex.c ****   
 996:Drivers/STM32F1xx_HAL_Driver/Src/stm32f1xx_hal_flash_ex.c ****   if(status == HAL_OK)
 1461              		.loc 1 996 5
 1462 001c FB7B     		ldrb	r3, [r7, #15]	@ zero_extendqisi2
 1463 001e 002B     		cmp	r3, #0
 1464 0020 18D1     		bne	.L74
 997:Drivers/STM32F1xx_HAL_Driver/Src/stm32f1xx_hal_flash_ex.c ****   {
 998:Drivers/STM32F1xx_HAL_Driver/Src/stm32f1xx_hal_flash_ex.c ****     /* Clean the error context */
 999:Drivers/STM32F1xx_HAL_Driver/Src/stm32f1xx_hal_flash_ex.c ****     pFlash.ErrorCode = HAL_FLASH_ERROR_NONE;
 1465              		.loc 1 999 22
 1466 0022 0F4B     		ldr	r3, .L76
 1467 0024 0022     		movs	r2, #0
 1468 0026 DA61     		str	r2, [r3, #28]
1000:Drivers/STM32F1xx_HAL_Driver/Src/stm32f1xx_hal_flash_ex.c **** 
ARM GAS  C:\Users\Matvey\AppData\Local\Temp\cctkve6j.s 			page 44


1001:Drivers/STM32F1xx_HAL_Driver/Src/stm32f1xx_hal_flash_ex.c ****     /* Enables the Option Bytes Programming operation */
1002:Drivers/STM32F1xx_HAL_Driver/Src/stm32f1xx_hal_flash_ex.c ****     SET_BIT(FLASH->CR, FLASH_CR_OPTPG); 
 1469              		.loc 1 1002 5
 1470 0028 0E4B     		ldr	r3, .L76+4
 1471 002a 1B69     		ldr	r3, [r3, #16]
 1472 002c 0D4A     		ldr	r2, .L76+4
 1473 002e 43F01003 		orr	r3, r3, #16
 1474 0032 1361     		str	r3, [r2, #16]
1003:Drivers/STM32F1xx_HAL_Driver/Src/stm32f1xx_hal_flash_ex.c ****     *(__IO uint16_t*)Address = Data;
 1475              		.loc 1 1003 6
 1476 0034 7B68     		ldr	r3, [r7, #4]
 1477              		.loc 1 1003 30
 1478 0036 FA78     		ldrb	r2, [r7, #3]	@ zero_extendqisi2
 1479 0038 92B2     		uxth	r2, r2
 1480 003a 1A80     		strh	r2, [r3]	@ movhi
1004:Drivers/STM32F1xx_HAL_Driver/Src/stm32f1xx_hal_flash_ex.c ****     
1005:Drivers/STM32F1xx_HAL_Driver/Src/stm32f1xx_hal_flash_ex.c ****     /* Wait for last operation to be completed */
1006:Drivers/STM32F1xx_HAL_Driver/Src/stm32f1xx_hal_flash_ex.c ****     status = FLASH_WaitForLastOperation((uint32_t)FLASH_TIMEOUT_VALUE);
 1481              		.loc 1 1006 14
 1482 003c 4CF25030 		movw	r0, #50000
 1483 0040 FFF7FEFF 		bl	FLASH_WaitForLastOperation
 1484 0044 0346     		mov	r3, r0
 1485 0046 FB73     		strb	r3, [r7, #15]
1007:Drivers/STM32F1xx_HAL_Driver/Src/stm32f1xx_hal_flash_ex.c ****     
1008:Drivers/STM32F1xx_HAL_Driver/Src/stm32f1xx_hal_flash_ex.c ****     /* If the program operation is completed, disable the OPTPG Bit */
1009:Drivers/STM32F1xx_HAL_Driver/Src/stm32f1xx_hal_flash_ex.c ****     CLEAR_BIT(FLASH->CR, FLASH_CR_OPTPG);
 1486              		.loc 1 1009 5
 1487 0048 064B     		ldr	r3, .L76+4
 1488 004a 1B69     		ldr	r3, [r3, #16]
 1489 004c 054A     		ldr	r2, .L76+4
 1490 004e 23F01003 		bic	r3, r3, #16
 1491 0052 1361     		str	r3, [r2, #16]
 1492              	.L74:
1010:Drivers/STM32F1xx_HAL_Driver/Src/stm32f1xx_hal_flash_ex.c ****   }
1011:Drivers/STM32F1xx_HAL_Driver/Src/stm32f1xx_hal_flash_ex.c ****   /* Return the Option Byte Data Program Status */
1012:Drivers/STM32F1xx_HAL_Driver/Src/stm32f1xx_hal_flash_ex.c ****   return status;
 1493              		.loc 1 1012 10
 1494 0054 FB7B     		ldrb	r3, [r7, #15]	@ zero_extendqisi2
1013:Drivers/STM32F1xx_HAL_Driver/Src/stm32f1xx_hal_flash_ex.c **** }
 1495              		.loc 1 1013 1
 1496 0056 1846     		mov	r0, r3
 1497 0058 1037     		adds	r7, r7, #16
 1498              	.LCFI60:
 1499              		.cfi_def_cfa_offset 8
 1500 005a BD46     		mov	sp, r7
 1501              	.LCFI61:
 1502              		.cfi_def_cfa_register 13
 1503              		@ sp needed
 1504 005c 80BD     		pop	{r7, pc}
 1505              	.L77:
 1506 005e 00BF     		.align	2
 1507              	.L76:
 1508 0060 00000000 		.word	pFlash
 1509 0064 00200240 		.word	1073881088
 1510              		.cfi_endproc
 1511              	.LFE76:
 1513              		.section	.text.FLASH_OB_GetWRP,"ax",%progbits
ARM GAS  C:\Users\Matvey\AppData\Local\Temp\cctkve6j.s 			page 45


 1514              		.align	1
 1515              		.syntax unified
 1516              		.thumb
 1517              		.thumb_func
 1519              	FLASH_OB_GetWRP:
 1520              	.LFB77:
1014:Drivers/STM32F1xx_HAL_Driver/Src/stm32f1xx_hal_flash_ex.c **** 
1015:Drivers/STM32F1xx_HAL_Driver/Src/stm32f1xx_hal_flash_ex.c **** /**
1016:Drivers/STM32F1xx_HAL_Driver/Src/stm32f1xx_hal_flash_ex.c ****   * @brief  Return the FLASH Write Protection Option Bytes value.
1017:Drivers/STM32F1xx_HAL_Driver/Src/stm32f1xx_hal_flash_ex.c ****   * @retval The FLASH Write Protection Option Bytes value
1018:Drivers/STM32F1xx_HAL_Driver/Src/stm32f1xx_hal_flash_ex.c ****   */
1019:Drivers/STM32F1xx_HAL_Driver/Src/stm32f1xx_hal_flash_ex.c **** static uint32_t FLASH_OB_GetWRP(void)
1020:Drivers/STM32F1xx_HAL_Driver/Src/stm32f1xx_hal_flash_ex.c **** {
 1521              		.loc 1 1020 1
 1522              		.cfi_startproc
 1523              		@ args = 0, pretend = 0, frame = 0
 1524              		@ frame_needed = 1, uses_anonymous_args = 0
 1525              		@ link register save eliminated.
 1526 0000 80B4     		push	{r7}
 1527              	.LCFI62:
 1528              		.cfi_def_cfa_offset 4
 1529              		.cfi_offset 7, -4
 1530 0002 00AF     		add	r7, sp, #0
 1531              	.LCFI63:
 1532              		.cfi_def_cfa_register 7
1021:Drivers/STM32F1xx_HAL_Driver/Src/stm32f1xx_hal_flash_ex.c ****   /* Return the FLASH write protection Register value */
1022:Drivers/STM32F1xx_HAL_Driver/Src/stm32f1xx_hal_flash_ex.c ****   return (uint32_t)(READ_REG(FLASH->WRPR));
 1533              		.loc 1 1022 21
 1534 0004 024B     		ldr	r3, .L80
 1535              		.loc 1 1022 10
 1536 0006 1B6A     		ldr	r3, [r3, #32]
1023:Drivers/STM32F1xx_HAL_Driver/Src/stm32f1xx_hal_flash_ex.c **** }
 1537              		.loc 1 1023 1
 1538 0008 1846     		mov	r0, r3
 1539 000a BD46     		mov	sp, r7
 1540              	.LCFI64:
 1541              		.cfi_def_cfa_register 13
 1542              		@ sp needed
 1543 000c 80BC     		pop	{r7}
 1544              	.LCFI65:
 1545              		.cfi_restore 7
 1546              		.cfi_def_cfa_offset 0
 1547 000e 7047     		bx	lr
 1548              	.L81:
 1549              		.align	2
 1550              	.L80:
 1551 0010 00200240 		.word	1073881088
 1552              		.cfi_endproc
 1553              	.LFE77:
 1555              		.section	.text.FLASH_OB_GetRDP,"ax",%progbits
 1556              		.align	1
 1557              		.syntax unified
 1558              		.thumb
 1559              		.thumb_func
 1561              	FLASH_OB_GetRDP:
 1562              	.LFB78:
1024:Drivers/STM32F1xx_HAL_Driver/Src/stm32f1xx_hal_flash_ex.c **** 
ARM GAS  C:\Users\Matvey\AppData\Local\Temp\cctkve6j.s 			page 46


1025:Drivers/STM32F1xx_HAL_Driver/Src/stm32f1xx_hal_flash_ex.c **** /**
1026:Drivers/STM32F1xx_HAL_Driver/Src/stm32f1xx_hal_flash_ex.c ****   * @brief  Returns the FLASH Read Protection level.
1027:Drivers/STM32F1xx_HAL_Driver/Src/stm32f1xx_hal_flash_ex.c ****   * @retval FLASH RDP level
1028:Drivers/STM32F1xx_HAL_Driver/Src/stm32f1xx_hal_flash_ex.c ****   *         This parameter can be one of the following values:
1029:Drivers/STM32F1xx_HAL_Driver/Src/stm32f1xx_hal_flash_ex.c ****   *            @arg @ref OB_RDP_LEVEL_0 No protection
1030:Drivers/STM32F1xx_HAL_Driver/Src/stm32f1xx_hal_flash_ex.c ****   *            @arg @ref OB_RDP_LEVEL_1 Read protection of the memory
1031:Drivers/STM32F1xx_HAL_Driver/Src/stm32f1xx_hal_flash_ex.c ****   */
1032:Drivers/STM32F1xx_HAL_Driver/Src/stm32f1xx_hal_flash_ex.c **** static uint32_t FLASH_OB_GetRDP(void)
1033:Drivers/STM32F1xx_HAL_Driver/Src/stm32f1xx_hal_flash_ex.c **** {
 1563              		.loc 1 1033 1
 1564              		.cfi_startproc
 1565              		@ args = 0, pretend = 0, frame = 8
 1566              		@ frame_needed = 1, uses_anonymous_args = 0
 1567              		@ link register save eliminated.
 1568 0000 80B4     		push	{r7}
 1569              	.LCFI66:
 1570              		.cfi_def_cfa_offset 4
 1571              		.cfi_offset 7, -4
 1572 0002 83B0     		sub	sp, sp, #12
 1573              	.LCFI67:
 1574              		.cfi_def_cfa_offset 16
 1575 0004 00AF     		add	r7, sp, #0
 1576              	.LCFI68:
 1577              		.cfi_def_cfa_register 7
1034:Drivers/STM32F1xx_HAL_Driver/Src/stm32f1xx_hal_flash_ex.c ****   uint32_t readstatus = OB_RDP_LEVEL_0;
 1578              		.loc 1 1034 12
 1579 0006 A523     		movs	r3, #165
 1580 0008 7B60     		str	r3, [r7, #4]
1035:Drivers/STM32F1xx_HAL_Driver/Src/stm32f1xx_hal_flash_ex.c ****   uint32_t tmp_reg = 0U;
 1581              		.loc 1 1035 12
 1582 000a 0023     		movs	r3, #0
 1583 000c 3B60     		str	r3, [r7]
1036:Drivers/STM32F1xx_HAL_Driver/Src/stm32f1xx_hal_flash_ex.c ****   
1037:Drivers/STM32F1xx_HAL_Driver/Src/stm32f1xx_hal_flash_ex.c ****   /* Read RDP level bits */
1038:Drivers/STM32F1xx_HAL_Driver/Src/stm32f1xx_hal_flash_ex.c ****   tmp_reg = READ_BIT(FLASH->OBR, FLASH_OBR_RDPRT);
 1584              		.loc 1 1038 13
 1585 000e 094B     		ldr	r3, .L86
 1586 0010 DB69     		ldr	r3, [r3, #28]
 1587              		.loc 1 1038 11
 1588 0012 03F00203 		and	r3, r3, #2
 1589 0016 3B60     		str	r3, [r7]
1039:Drivers/STM32F1xx_HAL_Driver/Src/stm32f1xx_hal_flash_ex.c **** 
1040:Drivers/STM32F1xx_HAL_Driver/Src/stm32f1xx_hal_flash_ex.c ****   if (tmp_reg == FLASH_OBR_RDPRT)
 1590              		.loc 1 1040 6
 1591 0018 3B68     		ldr	r3, [r7]
 1592 001a 022B     		cmp	r3, #2
 1593 001c 02D1     		bne	.L83
1041:Drivers/STM32F1xx_HAL_Driver/Src/stm32f1xx_hal_flash_ex.c ****   {
1042:Drivers/STM32F1xx_HAL_Driver/Src/stm32f1xx_hal_flash_ex.c ****     readstatus = OB_RDP_LEVEL_1;
 1594              		.loc 1 1042 16
 1595 001e 0023     		movs	r3, #0
 1596 0020 7B60     		str	r3, [r7, #4]
 1597 0022 01E0     		b	.L84
 1598              	.L83:
1043:Drivers/STM32F1xx_HAL_Driver/Src/stm32f1xx_hal_flash_ex.c ****   }
1044:Drivers/STM32F1xx_HAL_Driver/Src/stm32f1xx_hal_flash_ex.c ****   else 
1045:Drivers/STM32F1xx_HAL_Driver/Src/stm32f1xx_hal_flash_ex.c ****   {
ARM GAS  C:\Users\Matvey\AppData\Local\Temp\cctkve6j.s 			page 47


1046:Drivers/STM32F1xx_HAL_Driver/Src/stm32f1xx_hal_flash_ex.c ****     readstatus = OB_RDP_LEVEL_0;
 1599              		.loc 1 1046 16
 1600 0024 A523     		movs	r3, #165
 1601 0026 7B60     		str	r3, [r7, #4]
 1602              	.L84:
1047:Drivers/STM32F1xx_HAL_Driver/Src/stm32f1xx_hal_flash_ex.c ****   }
1048:Drivers/STM32F1xx_HAL_Driver/Src/stm32f1xx_hal_flash_ex.c **** 
1049:Drivers/STM32F1xx_HAL_Driver/Src/stm32f1xx_hal_flash_ex.c ****   return readstatus;
 1603              		.loc 1 1049 10
 1604 0028 7B68     		ldr	r3, [r7, #4]
1050:Drivers/STM32F1xx_HAL_Driver/Src/stm32f1xx_hal_flash_ex.c **** }
 1605              		.loc 1 1050 1
 1606 002a 1846     		mov	r0, r3
 1607 002c 0C37     		adds	r7, r7, #12
 1608              	.LCFI69:
 1609              		.cfi_def_cfa_offset 4
 1610 002e BD46     		mov	sp, r7
 1611              	.LCFI70:
 1612              		.cfi_def_cfa_register 13
 1613              		@ sp needed
 1614 0030 80BC     		pop	{r7}
 1615              	.LCFI71:
 1616              		.cfi_restore 7
 1617              		.cfi_def_cfa_offset 0
 1618 0032 7047     		bx	lr
 1619              	.L87:
 1620              		.align	2
 1621              	.L86:
 1622 0034 00200240 		.word	1073881088
 1623              		.cfi_endproc
 1624              	.LFE78:
 1626              		.section	.text.FLASH_OB_GetUser,"ax",%progbits
 1627              		.align	1
 1628              		.syntax unified
 1629              		.thumb
 1630              		.thumb_func
 1632              	FLASH_OB_GetUser:
 1633              	.LFB79:
1051:Drivers/STM32F1xx_HAL_Driver/Src/stm32f1xx_hal_flash_ex.c **** 
1052:Drivers/STM32F1xx_HAL_Driver/Src/stm32f1xx_hal_flash_ex.c **** /**
1053:Drivers/STM32F1xx_HAL_Driver/Src/stm32f1xx_hal_flash_ex.c ****   * @brief  Return the FLASH User Option Byte value.
1054:Drivers/STM32F1xx_HAL_Driver/Src/stm32f1xx_hal_flash_ex.c ****   * @retval The FLASH User Option Bytes values: FLASH_OBR_IWDG_SW(Bit2), 
1055:Drivers/STM32F1xx_HAL_Driver/Src/stm32f1xx_hal_flash_ex.c ****   *         FLASH_OBR_nRST_STOP(Bit3),FLASH_OBR_nRST_STDBY(Bit4).
1056:Drivers/STM32F1xx_HAL_Driver/Src/stm32f1xx_hal_flash_ex.c ****   *         And FLASH_OBR_BFB2(Bit5) for STM32F101xG and STM32F103xG . 
1057:Drivers/STM32F1xx_HAL_Driver/Src/stm32f1xx_hal_flash_ex.c ****   */
1058:Drivers/STM32F1xx_HAL_Driver/Src/stm32f1xx_hal_flash_ex.c **** static uint8_t FLASH_OB_GetUser(void)
1059:Drivers/STM32F1xx_HAL_Driver/Src/stm32f1xx_hal_flash_ex.c **** {
 1634              		.loc 1 1059 1
 1635              		.cfi_startproc
 1636              		@ args = 0, pretend = 0, frame = 0
 1637              		@ frame_needed = 1, uses_anonymous_args = 0
 1638              		@ link register save eliminated.
 1639 0000 80B4     		push	{r7}
 1640              	.LCFI72:
 1641              		.cfi_def_cfa_offset 4
 1642              		.cfi_offset 7, -4
 1643 0002 00AF     		add	r7, sp, #0
ARM GAS  C:\Users\Matvey\AppData\Local\Temp\cctkve6j.s 			page 48


 1644              	.LCFI73:
 1645              		.cfi_def_cfa_register 7
1060:Drivers/STM32F1xx_HAL_Driver/Src/stm32f1xx_hal_flash_ex.c ****   /* Return the User Option Byte */
1061:Drivers/STM32F1xx_HAL_Driver/Src/stm32f1xx_hal_flash_ex.c ****   return (uint8_t)((READ_REG(FLASH->OBR) & FLASH_OBR_USER) >> FLASH_POSITION_IWDGSW_BIT);
 1646              		.loc 1 1061 21
 1647 0004 054B     		ldr	r3, .L90
 1648 0006 DB69     		ldr	r3, [r3, #28]
 1649              		.loc 1 1061 60
 1650 0008 9B08     		lsrs	r3, r3, #2
 1651              		.loc 1 1061 10
 1652 000a DBB2     		uxtb	r3, r3
 1653 000c 03F00703 		and	r3, r3, #7
 1654 0010 DBB2     		uxtb	r3, r3
1062:Drivers/STM32F1xx_HAL_Driver/Src/stm32f1xx_hal_flash_ex.c **** }
 1655              		.loc 1 1062 1
 1656 0012 1846     		mov	r0, r3
 1657 0014 BD46     		mov	sp, r7
 1658              	.LCFI74:
 1659              		.cfi_def_cfa_register 13
 1660              		@ sp needed
 1661 0016 80BC     		pop	{r7}
 1662              	.LCFI75:
 1663              		.cfi_restore 7
 1664              		.cfi_def_cfa_offset 0
 1665 0018 7047     		bx	lr
 1666              	.L91:
 1667 001a 00BF     		.align	2
 1668              	.L90:
 1669 001c 00200240 		.word	1073881088
 1670              		.cfi_endproc
 1671              	.LFE79:
 1673              		.section	.text.FLASH_PageErase,"ax",%progbits
 1674              		.align	1
 1675              		.global	FLASH_PageErase
 1676              		.syntax unified
 1677              		.thumb
 1678              		.thumb_func
 1680              	FLASH_PageErase:
 1681              	.LFB80:
1063:Drivers/STM32F1xx_HAL_Driver/Src/stm32f1xx_hal_flash_ex.c **** 
1064:Drivers/STM32F1xx_HAL_Driver/Src/stm32f1xx_hal_flash_ex.c **** /**
1065:Drivers/STM32F1xx_HAL_Driver/Src/stm32f1xx_hal_flash_ex.c ****   * @}
1066:Drivers/STM32F1xx_HAL_Driver/Src/stm32f1xx_hal_flash_ex.c ****   */
1067:Drivers/STM32F1xx_HAL_Driver/Src/stm32f1xx_hal_flash_ex.c **** 
1068:Drivers/STM32F1xx_HAL_Driver/Src/stm32f1xx_hal_flash_ex.c **** /**
1069:Drivers/STM32F1xx_HAL_Driver/Src/stm32f1xx_hal_flash_ex.c ****   * @}
1070:Drivers/STM32F1xx_HAL_Driver/Src/stm32f1xx_hal_flash_ex.c ****   */
1071:Drivers/STM32F1xx_HAL_Driver/Src/stm32f1xx_hal_flash_ex.c **** 
1072:Drivers/STM32F1xx_HAL_Driver/Src/stm32f1xx_hal_flash_ex.c **** /** @addtogroup FLASH
1073:Drivers/STM32F1xx_HAL_Driver/Src/stm32f1xx_hal_flash_ex.c ****   * @{
1074:Drivers/STM32F1xx_HAL_Driver/Src/stm32f1xx_hal_flash_ex.c ****   */
1075:Drivers/STM32F1xx_HAL_Driver/Src/stm32f1xx_hal_flash_ex.c **** 
1076:Drivers/STM32F1xx_HAL_Driver/Src/stm32f1xx_hal_flash_ex.c **** /** @addtogroup FLASH_Private_Functions
1077:Drivers/STM32F1xx_HAL_Driver/Src/stm32f1xx_hal_flash_ex.c ****  * @{
1078:Drivers/STM32F1xx_HAL_Driver/Src/stm32f1xx_hal_flash_ex.c ****  */
1079:Drivers/STM32F1xx_HAL_Driver/Src/stm32f1xx_hal_flash_ex.c **** 
1080:Drivers/STM32F1xx_HAL_Driver/Src/stm32f1xx_hal_flash_ex.c **** /**
ARM GAS  C:\Users\Matvey\AppData\Local\Temp\cctkve6j.s 			page 49


1081:Drivers/STM32F1xx_HAL_Driver/Src/stm32f1xx_hal_flash_ex.c ****   * @brief  Erase the specified FLASH memory page
1082:Drivers/STM32F1xx_HAL_Driver/Src/stm32f1xx_hal_flash_ex.c ****   * @param  PageAddress FLASH page to erase
1083:Drivers/STM32F1xx_HAL_Driver/Src/stm32f1xx_hal_flash_ex.c ****   *         The value of this parameter depend on device used within the same series      
1084:Drivers/STM32F1xx_HAL_Driver/Src/stm32f1xx_hal_flash_ex.c ****   * 
1085:Drivers/STM32F1xx_HAL_Driver/Src/stm32f1xx_hal_flash_ex.c ****   * @retval None
1086:Drivers/STM32F1xx_HAL_Driver/Src/stm32f1xx_hal_flash_ex.c ****   */
1087:Drivers/STM32F1xx_HAL_Driver/Src/stm32f1xx_hal_flash_ex.c **** void FLASH_PageErase(uint32_t PageAddress)
1088:Drivers/STM32F1xx_HAL_Driver/Src/stm32f1xx_hal_flash_ex.c **** {
 1682              		.loc 1 1088 1
 1683              		.cfi_startproc
 1684              		@ args = 0, pretend = 0, frame = 8
 1685              		@ frame_needed = 1, uses_anonymous_args = 0
 1686              		@ link register save eliminated.
 1687 0000 80B4     		push	{r7}
 1688              	.LCFI76:
 1689              		.cfi_def_cfa_offset 4
 1690              		.cfi_offset 7, -4
 1691 0002 83B0     		sub	sp, sp, #12
 1692              	.LCFI77:
 1693              		.cfi_def_cfa_offset 16
 1694 0004 00AF     		add	r7, sp, #0
 1695              	.LCFI78:
 1696              		.cfi_def_cfa_register 7
 1697 0006 7860     		str	r0, [r7, #4]
1089:Drivers/STM32F1xx_HAL_Driver/Src/stm32f1xx_hal_flash_ex.c ****   /* Clean the error context */
1090:Drivers/STM32F1xx_HAL_Driver/Src/stm32f1xx_hal_flash_ex.c ****   pFlash.ErrorCode = HAL_FLASH_ERROR_NONE;
 1698              		.loc 1 1090 20
 1699 0008 0B4B     		ldr	r3, .L93
 1700 000a 0022     		movs	r2, #0
 1701 000c DA61     		str	r2, [r3, #28]
1091:Drivers/STM32F1xx_HAL_Driver/Src/stm32f1xx_hal_flash_ex.c **** 
1092:Drivers/STM32F1xx_HAL_Driver/Src/stm32f1xx_hal_flash_ex.c **** #if defined(FLASH_BANK2_END)
1093:Drivers/STM32F1xx_HAL_Driver/Src/stm32f1xx_hal_flash_ex.c ****   if(PageAddress > FLASH_BANK1_END)
1094:Drivers/STM32F1xx_HAL_Driver/Src/stm32f1xx_hal_flash_ex.c ****   { 
1095:Drivers/STM32F1xx_HAL_Driver/Src/stm32f1xx_hal_flash_ex.c ****     /* Proceed to erase the page */
1096:Drivers/STM32F1xx_HAL_Driver/Src/stm32f1xx_hal_flash_ex.c ****     SET_BIT(FLASH->CR2, FLASH_CR2_PER);
1097:Drivers/STM32F1xx_HAL_Driver/Src/stm32f1xx_hal_flash_ex.c ****     WRITE_REG(FLASH->AR2, PageAddress);
1098:Drivers/STM32F1xx_HAL_Driver/Src/stm32f1xx_hal_flash_ex.c ****     SET_BIT(FLASH->CR2, FLASH_CR2_STRT);
1099:Drivers/STM32F1xx_HAL_Driver/Src/stm32f1xx_hal_flash_ex.c ****   }
1100:Drivers/STM32F1xx_HAL_Driver/Src/stm32f1xx_hal_flash_ex.c ****   else
1101:Drivers/STM32F1xx_HAL_Driver/Src/stm32f1xx_hal_flash_ex.c ****   {
1102:Drivers/STM32F1xx_HAL_Driver/Src/stm32f1xx_hal_flash_ex.c **** #endif /* FLASH_BANK2_END */
1103:Drivers/STM32F1xx_HAL_Driver/Src/stm32f1xx_hal_flash_ex.c ****     /* Proceed to erase the page */
1104:Drivers/STM32F1xx_HAL_Driver/Src/stm32f1xx_hal_flash_ex.c ****     SET_BIT(FLASH->CR, FLASH_CR_PER);
 1702              		.loc 1 1104 5
 1703 000e 0B4B     		ldr	r3, .L93+4
 1704 0010 1B69     		ldr	r3, [r3, #16]
 1705 0012 0A4A     		ldr	r2, .L93+4
 1706 0014 43F00203 		orr	r3, r3, #2
 1707 0018 1361     		str	r3, [r2, #16]
1105:Drivers/STM32F1xx_HAL_Driver/Src/stm32f1xx_hal_flash_ex.c ****     WRITE_REG(FLASH->AR, PageAddress);
 1708              		.loc 1 1105 5
 1709 001a 084A     		ldr	r2, .L93+4
 1710 001c 7B68     		ldr	r3, [r7, #4]
 1711 001e 5361     		str	r3, [r2, #20]
1106:Drivers/STM32F1xx_HAL_Driver/Src/stm32f1xx_hal_flash_ex.c ****     SET_BIT(FLASH->CR, FLASH_CR_STRT);
 1712              		.loc 1 1106 5
ARM GAS  C:\Users\Matvey\AppData\Local\Temp\cctkve6j.s 			page 50


 1713 0020 064B     		ldr	r3, .L93+4
 1714 0022 1B69     		ldr	r3, [r3, #16]
 1715 0024 054A     		ldr	r2, .L93+4
 1716 0026 43F04003 		orr	r3, r3, #64
 1717 002a 1361     		str	r3, [r2, #16]
1107:Drivers/STM32F1xx_HAL_Driver/Src/stm32f1xx_hal_flash_ex.c **** #if defined(FLASH_BANK2_END)
1108:Drivers/STM32F1xx_HAL_Driver/Src/stm32f1xx_hal_flash_ex.c ****   }
1109:Drivers/STM32F1xx_HAL_Driver/Src/stm32f1xx_hal_flash_ex.c **** #endif /* FLASH_BANK2_END */
1110:Drivers/STM32F1xx_HAL_Driver/Src/stm32f1xx_hal_flash_ex.c **** }
 1718              		.loc 1 1110 1
 1719 002c 00BF     		nop
 1720 002e 0C37     		adds	r7, r7, #12
 1721              	.LCFI79:
 1722              		.cfi_def_cfa_offset 4
 1723 0030 BD46     		mov	sp, r7
 1724              	.LCFI80:
 1725              		.cfi_def_cfa_register 13
 1726              		@ sp needed
 1727 0032 80BC     		pop	{r7}
 1728              	.LCFI81:
 1729              		.cfi_restore 7
 1730              		.cfi_def_cfa_offset 0
 1731 0034 7047     		bx	lr
 1732              	.L94:
 1733 0036 00BF     		.align	2
 1734              	.L93:
 1735 0038 00000000 		.word	pFlash
 1736 003c 00200240 		.word	1073881088
 1737              		.cfi_endproc
 1738              	.LFE80:
 1740              		.text
 1741              	.Letext0:
 1742              		.file 2 "d:\\portable programs\\stm32-my-toolchain\\gcc-arm-none-eabi-10.3-2021.10\\arm-none-eabi\
 1743              		.file 3 "d:\\portable programs\\stm32-my-toolchain\\gcc-arm-none-eabi-10.3-2021.10\\arm-none-eabi\
 1744              		.file 4 "Drivers/CMSIS/Device/ST/STM32F1xx/Include/stm32f103xb.h"
 1745              		.file 5 "Drivers/STM32F1xx_HAL_Driver/Inc/stm32f1xx_hal_def.h"
 1746              		.file 6 "Drivers/STM32F1xx_HAL_Driver/Inc/stm32f1xx_hal_flash.h"
 1747              		.file 7 "Drivers/STM32F1xx_HAL_Driver/Inc/stm32f1xx_hal_flash_ex.h"
ARM GAS  C:\Users\Matvey\AppData\Local\Temp\cctkve6j.s 			page 51

